ARM GAS  C:\Users\LL_W530\AppData\Local\Temp\ccEOvGRa.s 			page 1


   1              		.syntax unified
   2              		.cpu cortex-m3
   3              		.fpu softvfp
   4              		.eabi_attribute 20, 1
   5              		.eabi_attribute 21, 1
   6              		.eabi_attribute 23, 3
   7              		.eabi_attribute 24, 1
   8              		.eabi_attribute 25, 1
   9              		.eabi_attribute 26, 1
  10              		.eabi_attribute 30, 1
  11              		.eabi_attribute 34, 1
  12              		.eabi_attribute 18, 4
  13              		.thumb
  14              		.file	"cyfitter_cfg.c"
  15              		.text
  16              	.Ltext0:
  17              		.cfi_sections	.debug_frame
  18              		.section	.text.CyClockStartupError,"ax",%progbits
  19              		.align	2
  20              		.thumb
  21              		.thumb_func
  22              		.type	CyClockStartupError, %function
  23              	CyClockStartupError:
  24              	.LFB3:
  25              		.file 1 "Generated_Source\\PSoC5\\cyfitter_cfg.c"
   1:Generated_Source\PSoC5/cyfitter_cfg.c **** /*******************************************************************************
   2:Generated_Source\PSoC5/cyfitter_cfg.c **** * File Name: cyfitter_cfg.c
   3:Generated_Source\PSoC5/cyfitter_cfg.c **** * 
   4:Generated_Source\PSoC5/cyfitter_cfg.c **** * PSoC Creator  4.0
   5:Generated_Source\PSoC5/cyfitter_cfg.c **** *
   6:Generated_Source\PSoC5/cyfitter_cfg.c **** * Description:
   7:Generated_Source\PSoC5/cyfitter_cfg.c **** * This file contains device initialization code.
   8:Generated_Source\PSoC5/cyfitter_cfg.c **** * Except for the user defined sections in CyClockStartupError(), this file should not be modified.
   9:Generated_Source\PSoC5/cyfitter_cfg.c **** * This file is automatically generated by PSoC Creator.
  10:Generated_Source\PSoC5/cyfitter_cfg.c **** *
  11:Generated_Source\PSoC5/cyfitter_cfg.c **** ********************************************************************************
  12:Generated_Source\PSoC5/cyfitter_cfg.c **** * Copyright (c) 2007-2016 Cypress Semiconductor.  All rights reserved.
  13:Generated_Source\PSoC5/cyfitter_cfg.c **** * You may use this file only in accordance with the license, terms, conditions, 
  14:Generated_Source\PSoC5/cyfitter_cfg.c **** * disclaimers, and limitations in the end user license agreement accompanying 
  15:Generated_Source\PSoC5/cyfitter_cfg.c **** * the software package with which this file was provided.
  16:Generated_Source\PSoC5/cyfitter_cfg.c **** ********************************************************************************/
  17:Generated_Source\PSoC5/cyfitter_cfg.c **** 
  18:Generated_Source\PSoC5/cyfitter_cfg.c **** #include <string.h>
  19:Generated_Source\PSoC5/cyfitter_cfg.c **** #include "cytypes.h"
  20:Generated_Source\PSoC5/cyfitter_cfg.c **** #include "cydevice_trm.h"
  21:Generated_Source\PSoC5/cyfitter_cfg.c **** #include "cyfitter.h"
  22:Generated_Source\PSoC5/cyfitter_cfg.c **** #include "CyLib.h"
  23:Generated_Source\PSoC5/cyfitter_cfg.c **** #include "cyfitter_cfg.h"
  24:Generated_Source\PSoC5/cyfitter_cfg.c **** #include "cyapicallbacks.h"
  25:Generated_Source\PSoC5/cyfitter_cfg.c **** 
  26:Generated_Source\PSoC5/cyfitter_cfg.c **** #define CY_NEED_CYCLOCKSTARTUPERROR 1
  27:Generated_Source\PSoC5/cyfitter_cfg.c **** 
  28:Generated_Source\PSoC5/cyfitter_cfg.c **** 
  29:Generated_Source\PSoC5/cyfitter_cfg.c **** #if defined(__GNUC__) || defined(__ARMCC_VERSION)
  30:Generated_Source\PSoC5/cyfitter_cfg.c ****     #define CYPACKED 
  31:Generated_Source\PSoC5/cyfitter_cfg.c ****     #define CYPACKED_ATTR __attribute__ ((packed))
  32:Generated_Source\PSoC5/cyfitter_cfg.c ****     #define CYALIGNED __attribute__ ((aligned))
ARM GAS  C:\Users\LL_W530\AppData\Local\Temp\ccEOvGRa.s 			page 2


  33:Generated_Source\PSoC5/cyfitter_cfg.c ****     #define CY_CFG_UNUSED __attribute__ ((unused))
  34:Generated_Source\PSoC5/cyfitter_cfg.c ****     #ifndef CY_CFG_SECTION
  35:Generated_Source\PSoC5/cyfitter_cfg.c ****         #define CY_CFG_SECTION __attribute__ ((section(".psocinit")))
  36:Generated_Source\PSoC5/cyfitter_cfg.c ****     #endif
  37:Generated_Source\PSoC5/cyfitter_cfg.c ****     
  38:Generated_Source\PSoC5/cyfitter_cfg.c ****     #if defined(__ARMCC_VERSION)
  39:Generated_Source\PSoC5/cyfitter_cfg.c ****         #define CY_CFG_MEMORY_BARRIER() __memory_changed()
  40:Generated_Source\PSoC5/cyfitter_cfg.c ****     #else
  41:Generated_Source\PSoC5/cyfitter_cfg.c ****         #define CY_CFG_MEMORY_BARRIER() __sync_synchronize()
  42:Generated_Source\PSoC5/cyfitter_cfg.c ****     #endif
  43:Generated_Source\PSoC5/cyfitter_cfg.c ****     
  44:Generated_Source\PSoC5/cyfitter_cfg.c **** #elif defined(__ICCARM__)
  45:Generated_Source\PSoC5/cyfitter_cfg.c ****     #include <intrinsics.h>
  46:Generated_Source\PSoC5/cyfitter_cfg.c **** 
  47:Generated_Source\PSoC5/cyfitter_cfg.c ****     #define CYPACKED __packed
  48:Generated_Source\PSoC5/cyfitter_cfg.c ****     #define CYPACKED_ATTR 
  49:Generated_Source\PSoC5/cyfitter_cfg.c ****     #define CYALIGNED _Pragma("data_alignment=4")
  50:Generated_Source\PSoC5/cyfitter_cfg.c ****     #define CY_CFG_UNUSED _Pragma("diag_suppress=Pe177")
  51:Generated_Source\PSoC5/cyfitter_cfg.c ****     #define CY_CFG_SECTION _Pragma("location=\".psocinit\"")
  52:Generated_Source\PSoC5/cyfitter_cfg.c ****     
  53:Generated_Source\PSoC5/cyfitter_cfg.c ****     #define CY_CFG_MEMORY_BARRIER() __DMB()
  54:Generated_Source\PSoC5/cyfitter_cfg.c ****     
  55:Generated_Source\PSoC5/cyfitter_cfg.c **** #else
  56:Generated_Source\PSoC5/cyfitter_cfg.c ****     #error Unsupported toolchain
  57:Generated_Source\PSoC5/cyfitter_cfg.c **** #endif
  58:Generated_Source\PSoC5/cyfitter_cfg.c **** 
  59:Generated_Source\PSoC5/cyfitter_cfg.c **** 
  60:Generated_Source\PSoC5/cyfitter_cfg.c **** CY_CFG_UNUSED
  61:Generated_Source\PSoC5/cyfitter_cfg.c **** static void CYMEMZERO(void *s, size_t n);
  62:Generated_Source\PSoC5/cyfitter_cfg.c **** CY_CFG_UNUSED
  63:Generated_Source\PSoC5/cyfitter_cfg.c **** static void CYMEMZERO(void *s, size_t n)
  64:Generated_Source\PSoC5/cyfitter_cfg.c **** {
  65:Generated_Source\PSoC5/cyfitter_cfg.c **** 	(void)memset(s, 0, n);
  66:Generated_Source\PSoC5/cyfitter_cfg.c **** }
  67:Generated_Source\PSoC5/cyfitter_cfg.c **** CY_CFG_UNUSED
  68:Generated_Source\PSoC5/cyfitter_cfg.c **** static void CYCONFIGCPY(void *dest, const void *src, size_t n);
  69:Generated_Source\PSoC5/cyfitter_cfg.c **** CY_CFG_UNUSED
  70:Generated_Source\PSoC5/cyfitter_cfg.c **** static void CYCONFIGCPY(void *dest, const void *src, size_t n)
  71:Generated_Source\PSoC5/cyfitter_cfg.c **** {
  72:Generated_Source\PSoC5/cyfitter_cfg.c **** 	(void)memcpy(dest, src, n);
  73:Generated_Source\PSoC5/cyfitter_cfg.c **** }
  74:Generated_Source\PSoC5/cyfitter_cfg.c **** CY_CFG_UNUSED
  75:Generated_Source\PSoC5/cyfitter_cfg.c **** static void CYCONFIGCPYCODE(void *dest, const void *src, size_t n);
  76:Generated_Source\PSoC5/cyfitter_cfg.c **** CY_CFG_UNUSED
  77:Generated_Source\PSoC5/cyfitter_cfg.c **** static void CYCONFIGCPYCODE(void *dest, const void *src, size_t n)
  78:Generated_Source\PSoC5/cyfitter_cfg.c **** {
  79:Generated_Source\PSoC5/cyfitter_cfg.c **** 	(void)memcpy(dest, src, n);
  80:Generated_Source\PSoC5/cyfitter_cfg.c **** }
  81:Generated_Source\PSoC5/cyfitter_cfg.c **** 
  82:Generated_Source\PSoC5/cyfitter_cfg.c **** 
  83:Generated_Source\PSoC5/cyfitter_cfg.c **** 
  84:Generated_Source\PSoC5/cyfitter_cfg.c **** 
  85:Generated_Source\PSoC5/cyfitter_cfg.c **** /* Clock startup error codes                                                   */
  86:Generated_Source\PSoC5/cyfitter_cfg.c **** #define CYCLOCKSTART_NO_ERROR    0u
  87:Generated_Source\PSoC5/cyfitter_cfg.c **** #define CYCLOCKSTART_XTAL_ERROR  1u
  88:Generated_Source\PSoC5/cyfitter_cfg.c **** #define CYCLOCKSTART_32KHZ_ERROR 2u
  89:Generated_Source\PSoC5/cyfitter_cfg.c **** #define CYCLOCKSTART_PLL_ERROR   3u
ARM GAS  C:\Users\LL_W530\AppData\Local\Temp\ccEOvGRa.s 			page 3


  90:Generated_Source\PSoC5/cyfitter_cfg.c **** 
  91:Generated_Source\PSoC5/cyfitter_cfg.c **** 
  92:Generated_Source\PSoC5/cyfitter_cfg.c **** #ifdef CY_NEED_CYCLOCKSTARTUPERROR
  93:Generated_Source\PSoC5/cyfitter_cfg.c **** /*******************************************************************************
  94:Generated_Source\PSoC5/cyfitter_cfg.c **** * Function Name: CyClockStartupError
  95:Generated_Source\PSoC5/cyfitter_cfg.c **** ********************************************************************************
  96:Generated_Source\PSoC5/cyfitter_cfg.c **** * Summary:
  97:Generated_Source\PSoC5/cyfitter_cfg.c **** *  If an error is encountered during clock configuration (crystal startup error,
  98:Generated_Source\PSoC5/cyfitter_cfg.c **** *  PLL lock error, etc.), the system will end up here.  Unless reimplemented by
  99:Generated_Source\PSoC5/cyfitter_cfg.c **** *  the customer, this function will stop in an infinite loop.
 100:Generated_Source\PSoC5/cyfitter_cfg.c **** *
 101:Generated_Source\PSoC5/cyfitter_cfg.c **** * Parameters:
 102:Generated_Source\PSoC5/cyfitter_cfg.c **** *   void
 103:Generated_Source\PSoC5/cyfitter_cfg.c **** *
 104:Generated_Source\PSoC5/cyfitter_cfg.c **** * Return:
 105:Generated_Source\PSoC5/cyfitter_cfg.c **** *   void
 106:Generated_Source\PSoC5/cyfitter_cfg.c **** *
 107:Generated_Source\PSoC5/cyfitter_cfg.c **** *******************************************************************************/
 108:Generated_Source\PSoC5/cyfitter_cfg.c **** CY_CFG_UNUSED
 109:Generated_Source\PSoC5/cyfitter_cfg.c **** static void CyClockStartupError(uint8 errorCode);
 110:Generated_Source\PSoC5/cyfitter_cfg.c **** CY_CFG_UNUSED
 111:Generated_Source\PSoC5/cyfitter_cfg.c **** static void CyClockStartupError(uint8 errorCode)
 112:Generated_Source\PSoC5/cyfitter_cfg.c **** {
  26              		.loc 1 112 0
  27              		.cfi_startproc
  28              		@ Volatile: function does not return.
  29              		@ args = 0, pretend = 0, frame = 0
  30              		@ frame_needed = 0, uses_anonymous_args = 0
  31              		@ link register save eliminated.
  32              	.LVL0:
  33              	.L2:
 113:Generated_Source\PSoC5/cyfitter_cfg.c ****     /* To remove the compiler warning if errorCode not used.                */
 114:Generated_Source\PSoC5/cyfitter_cfg.c ****     errorCode = errorCode;
 115:Generated_Source\PSoC5/cyfitter_cfg.c **** 
 116:Generated_Source\PSoC5/cyfitter_cfg.c ****     /* If we have a clock startup error (bad MHz crystal, PLL lock, etc.),  */
 117:Generated_Source\PSoC5/cyfitter_cfg.c ****     /* we will end up here to allow the customer to implement something to  */
 118:Generated_Source\PSoC5/cyfitter_cfg.c ****     /* deal with the clock condition.                                       */
 119:Generated_Source\PSoC5/cyfitter_cfg.c **** 
 120:Generated_Source\PSoC5/cyfitter_cfg.c **** #ifdef CY_CFG_CLOCK_STARTUP_ERROR_CALLBACK
 121:Generated_Source\PSoC5/cyfitter_cfg.c **** 	CY_CFG_Clock_Startup_ErrorCallback();
 122:Generated_Source\PSoC5/cyfitter_cfg.c **** #else
 123:Generated_Source\PSoC5/cyfitter_cfg.c **** 	/*  If not using CY_CFG_CLOCK_STARTUP_ERROR_CALLBACK, place your clock startup code here. */
 124:Generated_Source\PSoC5/cyfitter_cfg.c ****     /* `#START CyClockStartupError` */
 125:Generated_Source\PSoC5/cyfitter_cfg.c **** 
 126:Generated_Source\PSoC5/cyfitter_cfg.c ****     /* If we have a clock startup error (bad MHz crystal, PLL lock, etc.),  */
 127:Generated_Source\PSoC5/cyfitter_cfg.c ****     /* we will end up here to allow the customer to implement something to  */
 128:Generated_Source\PSoC5/cyfitter_cfg.c ****     /* deal with the clock condition.                                       */
 129:Generated_Source\PSoC5/cyfitter_cfg.c **** 
 130:Generated_Source\PSoC5/cyfitter_cfg.c ****     /* `#END` */
 131:Generated_Source\PSoC5/cyfitter_cfg.c **** 
 132:Generated_Source\PSoC5/cyfitter_cfg.c ****     /* If nothing else, stop here since the clocks have not started         */
 133:Generated_Source\PSoC5/cyfitter_cfg.c ****     /* correctly.                                                           */
 134:Generated_Source\PSoC5/cyfitter_cfg.c ****     while(1) {}
  34              		.loc 1 134 0 discriminator 1
  35 0000 FEE7     		b	.L2
  36              		.cfi_endproc
  37              	.LFE3:
ARM GAS  C:\Users\LL_W530\AppData\Local\Temp\ccEOvGRa.s 			page 4


  38              		.size	CyClockStartupError, .-CyClockStartupError
  39 0002 00BF     		.section	.text.cfg_write_bytes32,"ax",%progbits
  40              		.align	2
  41              		.thumb
  42              		.thumb_func
  43              		.type	cfg_write_bytes32, %function
  44              	cfg_write_bytes32:
  45              	.LFB4:
 135:Generated_Source\PSoC5/cyfitter_cfg.c **** #endif /* CY_CFG_CLOCK_STARTUP_ERROR_CALLBACK */ 
 136:Generated_Source\PSoC5/cyfitter_cfg.c **** }
 137:Generated_Source\PSoC5/cyfitter_cfg.c **** #endif
 138:Generated_Source\PSoC5/cyfitter_cfg.c **** 
 139:Generated_Source\PSoC5/cyfitter_cfg.c **** #define CY_CFG_BASE_ADDR_COUNT 39u
 140:Generated_Source\PSoC5/cyfitter_cfg.c **** CYPACKED typedef struct
 141:Generated_Source\PSoC5/cyfitter_cfg.c **** {
 142:Generated_Source\PSoC5/cyfitter_cfg.c **** 	uint8 offset;
 143:Generated_Source\PSoC5/cyfitter_cfg.c **** 	uint8 value;
 144:Generated_Source\PSoC5/cyfitter_cfg.c **** } CYPACKED_ATTR cy_cfg_addrvalue_t;
 145:Generated_Source\PSoC5/cyfitter_cfg.c **** 
 146:Generated_Source\PSoC5/cyfitter_cfg.c **** #define cy_cfg_addr_table ((const uint32 CYFAR *)0x48000000u)
 147:Generated_Source\PSoC5/cyfitter_cfg.c **** #define cy_cfg_data_table ((const cy_cfg_addrvalue_t CYFAR *)0x4800009Cu)
 148:Generated_Source\PSoC5/cyfitter_cfg.c **** 
 149:Generated_Source\PSoC5/cyfitter_cfg.c **** /* UDB_1_3_0_CONFIG Address: CYDEV_UCFG_B0_P2_U0_BASE Size (bytes): 128 */
 150:Generated_Source\PSoC5/cyfitter_cfg.c **** #define BS_UDB_1_3_0_CONFIG_VAL ((const uint8 CYFAR *)0x48000D88u)
 151:Generated_Source\PSoC5/cyfitter_cfg.c **** 
 152:Generated_Source\PSoC5/cyfitter_cfg.c **** /* UDB_0_2_0_CONFIG Address: CYDEV_UCFG_B0_P4_U1_BASE Size (bytes): 128 */
 153:Generated_Source\PSoC5/cyfitter_cfg.c **** #define BS_UDB_0_2_0_CONFIG_VAL ((const uint8 CYFAR *)0x48000E08u)
 154:Generated_Source\PSoC5/cyfitter_cfg.c **** 
 155:Generated_Source\PSoC5/cyfitter_cfg.c **** /* IOPINS0_0 Address: CYREG_PRT0_DM0 Size (bytes): 8 */
 156:Generated_Source\PSoC5/cyfitter_cfg.c **** #define BS_IOPINS0_0_VAL ((const uint8 CYFAR *)0x48000E88u)
 157:Generated_Source\PSoC5/cyfitter_cfg.c **** 
 158:Generated_Source\PSoC5/cyfitter_cfg.c **** /* IOPINS0_7 Address: CYREG_PRT12_DM0 Size (bytes): 8 */
 159:Generated_Source\PSoC5/cyfitter_cfg.c **** #define BS_IOPINS0_7_VAL ((const uint8 CYFAR *)0x48000E90u)
 160:Generated_Source\PSoC5/cyfitter_cfg.c **** 
 161:Generated_Source\PSoC5/cyfitter_cfg.c **** /* IOPINS0_8 Address: CYREG_PRT15_DR Size (bytes): 10 */
 162:Generated_Source\PSoC5/cyfitter_cfg.c **** #define BS_IOPINS0_8_VAL ((const uint8 CYFAR *)0x48000E98u)
 163:Generated_Source\PSoC5/cyfitter_cfg.c **** 
 164:Generated_Source\PSoC5/cyfitter_cfg.c **** /* IOPINS0_1 Address: CYREG_PRT1_DR Size (bytes): 10 */
 165:Generated_Source\PSoC5/cyfitter_cfg.c **** #define BS_IOPINS0_1_VAL ((const uint8 CYFAR *)0x48000EA4u)
 166:Generated_Source\PSoC5/cyfitter_cfg.c **** 
 167:Generated_Source\PSoC5/cyfitter_cfg.c **** /* IOPINS0_2 Address: CYREG_PRT2_DM0 Size (bytes): 8 */
 168:Generated_Source\PSoC5/cyfitter_cfg.c **** #define BS_IOPINS0_2_VAL ((const uint8 CYFAR *)0x48000EB0u)
 169:Generated_Source\PSoC5/cyfitter_cfg.c **** 
 170:Generated_Source\PSoC5/cyfitter_cfg.c **** /* IOPINS0_3 Address: CYREG_PRT3_DM0 Size (bytes): 8 */
 171:Generated_Source\PSoC5/cyfitter_cfg.c **** #define BS_IOPINS0_3_VAL ((const uint8 CYFAR *)0x48000EB8u)
 172:Generated_Source\PSoC5/cyfitter_cfg.c **** 
 173:Generated_Source\PSoC5/cyfitter_cfg.c **** /* IOPINS0_4 Address: CYREG_PRT4_DM0 Size (bytes): 8 */
 174:Generated_Source\PSoC5/cyfitter_cfg.c **** #define BS_IOPINS0_4_VAL ((const uint8 CYFAR *)0x48000EC0u)
 175:Generated_Source\PSoC5/cyfitter_cfg.c **** 
 176:Generated_Source\PSoC5/cyfitter_cfg.c **** /* IOPINS0_5 Address: CYREG_PRT5_DR Size (bytes): 10 */
 177:Generated_Source\PSoC5/cyfitter_cfg.c **** #define BS_IOPINS0_5_VAL ((const uint8 CYFAR *)0x48000EC8u)
 178:Generated_Source\PSoC5/cyfitter_cfg.c **** 
 179:Generated_Source\PSoC5/cyfitter_cfg.c **** /* IOPINS0_6 Address: CYREG_PRT6_DR Size (bytes): 10 */
 180:Generated_Source\PSoC5/cyfitter_cfg.c **** #define BS_IOPINS0_6_VAL ((const uint8 CYFAR *)0x48000ED4u)
 181:Generated_Source\PSoC5/cyfitter_cfg.c **** 
 182:Generated_Source\PSoC5/cyfitter_cfg.c **** /* CYDEV_CLKDIST_ACFG0_CFG0 Address: CYREG_CLKDIST_ACFG0_CFG0 Size (bytes): 4 */
 183:Generated_Source\PSoC5/cyfitter_cfg.c **** #define BS_CYDEV_CLKDIST_ACFG0_CFG0_VAL ((const uint8 CYFAR *)0x48000EE0u)
ARM GAS  C:\Users\LL_W530\AppData\Local\Temp\ccEOvGRa.s 			page 5


 184:Generated_Source\PSoC5/cyfitter_cfg.c **** 
 185:Generated_Source\PSoC5/cyfitter_cfg.c **** 
 186:Generated_Source\PSoC5/cyfitter_cfg.c **** /*******************************************************************************
 187:Generated_Source\PSoC5/cyfitter_cfg.c **** * Function Name: cfg_write_bytes32
 188:Generated_Source\PSoC5/cyfitter_cfg.c **** ********************************************************************************
 189:Generated_Source\PSoC5/cyfitter_cfg.c **** * Summary:
 190:Generated_Source\PSoC5/cyfitter_cfg.c **** *  This function is used for setting up the chip configuration areas that
 191:Generated_Source\PSoC5/cyfitter_cfg.c **** *  contain relatively sparse data.
 192:Generated_Source\PSoC5/cyfitter_cfg.c **** *
 193:Generated_Source\PSoC5/cyfitter_cfg.c **** * Parameters:
 194:Generated_Source\PSoC5/cyfitter_cfg.c **** *   void
 195:Generated_Source\PSoC5/cyfitter_cfg.c **** *
 196:Generated_Source\PSoC5/cyfitter_cfg.c **** * Return:
 197:Generated_Source\PSoC5/cyfitter_cfg.c **** *   void
 198:Generated_Source\PSoC5/cyfitter_cfg.c **** *
 199:Generated_Source\PSoC5/cyfitter_cfg.c **** *******************************************************************************/
 200:Generated_Source\PSoC5/cyfitter_cfg.c **** static void cfg_write_bytes32(const uint32 addr_table[], const cy_cfg_addrvalue_t data_table[]);
 201:Generated_Source\PSoC5/cyfitter_cfg.c **** static void cfg_write_bytes32(const uint32 addr_table[], const cy_cfg_addrvalue_t data_table[])
 202:Generated_Source\PSoC5/cyfitter_cfg.c **** {
  46              		.loc 1 202 0
  47              		.cfi_startproc
  48              		@ args = 0, pretend = 0, frame = 0
  49              		@ frame_needed = 0, uses_anonymous_args = 0
  50              		@ link register save eliminated.
  51              	.LVL1:
  52 0000 F0B4     		push	{r4, r5, r6, r7}
  53              		.cfi_def_cfa_offset 16
  54              		.cfi_offset 4, -16
  55              		.cfi_offset 5, -12
  56              		.cfi_offset 6, -8
  57              		.cfi_offset 7, -4
  58              	.LVL2:
 203:Generated_Source\PSoC5/cyfitter_cfg.c **** 	/* For 32-bit little-endian architectures */
 204:Generated_Source\PSoC5/cyfitter_cfg.c **** 	uint32 i, j = 0u;
  59              		.loc 1 204 0
  60 0002 0022     		movs	r2, #0
 205:Generated_Source\PSoC5/cyfitter_cfg.c **** 	for (i = 0u; i < CY_CFG_BASE_ADDR_COUNT; i++)
  61              		.loc 1 205 0
  62 0004 1746     		mov	r7, r2
  63 0006 11E0     		b	.L4
  64              	.LVL3:
  65              	.L7:
  66              	.LBB2:
 206:Generated_Source\PSoC5/cyfitter_cfg.c **** 	{
 207:Generated_Source\PSoC5/cyfitter_cfg.c **** 		uint32 baseAddr = addr_table[i];
  67              		.loc 1 207 0
  68 0008 50F82760 		ldr	r6, [r0, r7, lsl #2]
  69              	.LVL4:
 208:Generated_Source\PSoC5/cyfitter_cfg.c **** 		uint8 count = (uint8)baseAddr;
  70              		.loc 1 208 0
  71 000c F3B2     		uxtb	r3, r6
  72              	.LVL5:
 209:Generated_Source\PSoC5/cyfitter_cfg.c **** 		baseAddr &= 0xFFFFFF00u;
  73              		.loc 1 209 0
  74 000e 26F0FF06 		bic	r6, r6, #255
  75              	.LVL6:
 210:Generated_Source\PSoC5/cyfitter_cfg.c **** 		while (count != 0u)
ARM GAS  C:\Users\LL_W530\AppData\Local\Temp\ccEOvGRa.s 			page 6


  76              		.loc 1 210 0
  77 0012 08E0     		b	.L5
  78              	.L6:
 211:Generated_Source\PSoC5/cyfitter_cfg.c **** 		{
 212:Generated_Source\PSoC5/cyfitter_cfg.c **** 			CY_SET_XTND_REG8((void CYFAR *)(baseAddr + data_table[j].offset), data_table[j].value);
  79              		.loc 1 212 0
  80 0014 01EB4205 		add	r5, r1, r2, lsl #1
  81 0018 11F81240 		ldrb	r4, [r1, r2, lsl #1]	@ zero_extendqisi2
  82 001c 6D78     		ldrb	r5, [r5, #1]	@ zero_extendqisi2
  83 001e A555     		strb	r5, [r4, r6]
 213:Generated_Source\PSoC5/cyfitter_cfg.c **** 			j++;
  84              		.loc 1 213 0
  85 0020 0132     		adds	r2, r2, #1
  86              	.LVL7:
 214:Generated_Source\PSoC5/cyfitter_cfg.c **** 			count--;
  87              		.loc 1 214 0
  88 0022 013B     		subs	r3, r3, #1
  89              	.LVL8:
  90 0024 DBB2     		uxtb	r3, r3
  91              	.LVL9:
  92              	.L5:
 210:Generated_Source\PSoC5/cyfitter_cfg.c **** 		{
  93              		.loc 1 210 0
  94 0026 002B     		cmp	r3, #0
  95 0028 F4D1     		bne	.L6
  96              	.LBE2:
 205:Generated_Source\PSoC5/cyfitter_cfg.c **** 	{
  97              		.loc 1 205 0 discriminator 2
  98 002a 0137     		adds	r7, r7, #1
  99              	.LVL10:
 100              	.L4:
 205:Generated_Source\PSoC5/cyfitter_cfg.c **** 	{
 101              		.loc 1 205 0 is_stmt 0 discriminator 1
 102 002c 262F     		cmp	r7, #38
 103 002e EBD9     		bls	.L7
 215:Generated_Source\PSoC5/cyfitter_cfg.c **** 		}
 216:Generated_Source\PSoC5/cyfitter_cfg.c **** 	}
 217:Generated_Source\PSoC5/cyfitter_cfg.c **** }
 104              		.loc 1 217 0 is_stmt 1
 105 0030 F0BC     		pop	{r4, r5, r6, r7}
 106              		.cfi_restore 7
 107              		.cfi_restore 6
 108              		.cfi_restore 5
 109              		.cfi_restore 4
 110              		.cfi_def_cfa_offset 0
 111              	.LVL11:
 112 0032 7047     		bx	lr
 113              		.cfi_endproc
 114              	.LFE4:
 115              		.size	cfg_write_bytes32, .-cfg_write_bytes32
 116              		.section	.text.AnalogSetDefault,"ax",%progbits
 117              		.align	2
 118              		.thumb
 119              		.thumb_func
 120              		.type	AnalogSetDefault, %function
 121              	AnalogSetDefault:
 122              	.LFB6:
ARM GAS  C:\Users\LL_W530\AppData\Local\Temp\ccEOvGRa.s 			page 7


 218:Generated_Source\PSoC5/cyfitter_cfg.c **** 
 219:Generated_Source\PSoC5/cyfitter_cfg.c **** /*******************************************************************************
 220:Generated_Source\PSoC5/cyfitter_cfg.c **** * Function Name: ClockSetup
 221:Generated_Source\PSoC5/cyfitter_cfg.c **** ********************************************************************************
 222:Generated_Source\PSoC5/cyfitter_cfg.c **** *
 223:Generated_Source\PSoC5/cyfitter_cfg.c **** * Summary:
 224:Generated_Source\PSoC5/cyfitter_cfg.c **** *  Performs the initialization of all of the clocks in the device based on the
 225:Generated_Source\PSoC5/cyfitter_cfg.c **** *  settings in the Clock tab of the DWR.  This includes enabling the requested
 226:Generated_Source\PSoC5/cyfitter_cfg.c **** *  clocks and setting the necessary dividers to produce the desired frequency. 
 227:Generated_Source\PSoC5/cyfitter_cfg.c **** *
 228:Generated_Source\PSoC5/cyfitter_cfg.c **** * Parameters:
 229:Generated_Source\PSoC5/cyfitter_cfg.c **** *  void
 230:Generated_Source\PSoC5/cyfitter_cfg.c **** *
 231:Generated_Source\PSoC5/cyfitter_cfg.c **** * Return:
 232:Generated_Source\PSoC5/cyfitter_cfg.c **** *  void
 233:Generated_Source\PSoC5/cyfitter_cfg.c **** *
 234:Generated_Source\PSoC5/cyfitter_cfg.c **** *******************************************************************************/
 235:Generated_Source\PSoC5/cyfitter_cfg.c **** static void ClockSetup(void);
 236:Generated_Source\PSoC5/cyfitter_cfg.c **** static void ClockSetup(void)
 237:Generated_Source\PSoC5/cyfitter_cfg.c **** {
 238:Generated_Source\PSoC5/cyfitter_cfg.c **** 	uint32 timeout;
 239:Generated_Source\PSoC5/cyfitter_cfg.c **** 	uint8 pllLock;
 240:Generated_Source\PSoC5/cyfitter_cfg.c **** 
 241:Generated_Source\PSoC5/cyfitter_cfg.c **** 
 242:Generated_Source\PSoC5/cyfitter_cfg.c **** 	/* Configure Digital Clocks based on settings from Clock DWR */
 243:Generated_Source\PSoC5/cyfitter_cfg.c **** 	CY_SET_XTND_REG16((void CYFAR *)(CYREG_CLKDIST_DCFG0_CFG0), 0x095Fu);
 244:Generated_Source\PSoC5/cyfitter_cfg.c **** 	CY_SET_XTND_REG8((void CYFAR *)(CYREG_CLKDIST_DCFG0_CFG0 + 0x2u), 0x18u);
 245:Generated_Source\PSoC5/cyfitter_cfg.c **** 
 246:Generated_Source\PSoC5/cyfitter_cfg.c **** 	/* Configure Analog Clocks based on settings from Clock DWR */
 247:Generated_Source\PSoC5/cyfitter_cfg.c **** 	CYCONFIGCPY((void CYFAR *)(CYREG_CLKDIST_ACFG0_CFG0), (const void CYFAR *)(BS_CYDEV_CLKDIST_ACFG0_
 248:Generated_Source\PSoC5/cyfitter_cfg.c **** 
 249:Generated_Source\PSoC5/cyfitter_cfg.c **** 	/* Configure ILO based on settings from Clock DWR */
 250:Generated_Source\PSoC5/cyfitter_cfg.c **** 	CY_SET_XTND_REG8((void CYFAR *)(CYREG_SLOWCLK_ILO_CR0), 0x06u);
 251:Generated_Source\PSoC5/cyfitter_cfg.c **** 
 252:Generated_Source\PSoC5/cyfitter_cfg.c **** 	/* Configure IMO based on settings from Clock DWR */
 253:Generated_Source\PSoC5/cyfitter_cfg.c **** 	CY_SET_XTND_REG8((void CYFAR *)(CYREG_FASTCLK_IMO_CR), 0x52u);
 254:Generated_Source\PSoC5/cyfitter_cfg.c **** 	CY_SET_XTND_REG8((void CYFAR *)(CYREG_IMO_TR1), (CY_GET_XTND_REG8((void CYFAR *)CYREG_FLSHID_CUST_
 255:Generated_Source\PSoC5/cyfitter_cfg.c **** 
 256:Generated_Source\PSoC5/cyfitter_cfg.c **** 	/* Configure PLL based on settings from Clock DWR */
 257:Generated_Source\PSoC5/cyfitter_cfg.c **** 	CY_SET_XTND_REG16((void CYFAR *)(CYREG_FASTCLK_PLL_P), 0x0708u);
 258:Generated_Source\PSoC5/cyfitter_cfg.c **** 	CY_SET_XTND_REG16((void CYFAR *)(CYREG_FASTCLK_PLL_CFG0), 0x1251u);
 259:Generated_Source\PSoC5/cyfitter_cfg.c **** 	/* Wait up to 250us for the PLL to lock */
 260:Generated_Source\PSoC5/cyfitter_cfg.c **** 	pllLock = 0u;
 261:Generated_Source\PSoC5/cyfitter_cfg.c **** 	for (timeout = 250u / 10u; (timeout > 0u) && (pllLock != 0x03u); timeout--)
 262:Generated_Source\PSoC5/cyfitter_cfg.c **** 	{ 
 263:Generated_Source\PSoC5/cyfitter_cfg.c **** 		pllLock = 0x03u & ((uint8)((uint8)pllLock << 1) | ((CY_GET_XTND_REG8((void CYFAR *)CYREG_FASTCLK_
 264:Generated_Source\PSoC5/cyfitter_cfg.c **** 		CyDelayCycles(10u * 48u); /* Delay 10us based on 48MHz clock */
 265:Generated_Source\PSoC5/cyfitter_cfg.c **** 	}
 266:Generated_Source\PSoC5/cyfitter_cfg.c **** 	/* If we ran out of time the PLL didn't lock so go to the error function */
 267:Generated_Source\PSoC5/cyfitter_cfg.c **** 	if (timeout == 0u)
 268:Generated_Source\PSoC5/cyfitter_cfg.c **** 	{
 269:Generated_Source\PSoC5/cyfitter_cfg.c **** 		CyClockStartupError(CYCLOCKSTART_PLL_ERROR);
 270:Generated_Source\PSoC5/cyfitter_cfg.c **** 	}
 271:Generated_Source\PSoC5/cyfitter_cfg.c **** 
 272:Generated_Source\PSoC5/cyfitter_cfg.c **** 	/* Configure Bus/Master Clock based on settings from Clock DWR */
 273:Generated_Source\PSoC5/cyfitter_cfg.c **** 	CY_SET_XTND_REG16((void CYFAR *)(CYREG_CLKDIST_MSTR0), 0x0100u);
 274:Generated_Source\PSoC5/cyfitter_cfg.c **** 	CY_SET_XTND_REG8((void CYFAR *)(CYREG_CLKDIST_MSTR0), 0x07u);
ARM GAS  C:\Users\LL_W530\AppData\Local\Temp\ccEOvGRa.s 			page 8


 275:Generated_Source\PSoC5/cyfitter_cfg.c **** 	CY_SET_XTND_REG8((void CYFAR *)(CYREG_CLKDIST_BCFG0), 0x00u);
 276:Generated_Source\PSoC5/cyfitter_cfg.c **** 	CY_SET_XTND_REG8((void CYFAR *)(CYREG_CLKDIST_BCFG2), 0x48u);
 277:Generated_Source\PSoC5/cyfitter_cfg.c **** 	CY_SET_XTND_REG8((void CYFAR *)(CYREG_CLKDIST_MSTR0), 0x00u);
 278:Generated_Source\PSoC5/cyfitter_cfg.c **** 
 279:Generated_Source\PSoC5/cyfitter_cfg.c **** 	/* Configure USB Clock based on settings from Clock DWR */
 280:Generated_Source\PSoC5/cyfitter_cfg.c **** 	CY_SET_XTND_REG8((void CYFAR *)(CYREG_CLKDIST_UCFG), 0x00u);
 281:Generated_Source\PSoC5/cyfitter_cfg.c **** 	CY_SET_XTND_REG8((void CYFAR *)(CYREG_CLKDIST_LD), 0x02u);
 282:Generated_Source\PSoC5/cyfitter_cfg.c **** 
 283:Generated_Source\PSoC5/cyfitter_cfg.c **** 	CY_SET_XTND_REG8((void CYFAR *)(CYREG_PM_ACT_CFG2), ((CY_GET_XTND_REG8((void CYFAR *)CYREG_PM_ACT_
 284:Generated_Source\PSoC5/cyfitter_cfg.c **** }
 285:Generated_Source\PSoC5/cyfitter_cfg.c **** 
 286:Generated_Source\PSoC5/cyfitter_cfg.c **** 
 287:Generated_Source\PSoC5/cyfitter_cfg.c **** /* Analog API Functions */
 288:Generated_Source\PSoC5/cyfitter_cfg.c **** 
 289:Generated_Source\PSoC5/cyfitter_cfg.c **** 
 290:Generated_Source\PSoC5/cyfitter_cfg.c **** /*******************************************************************************
 291:Generated_Source\PSoC5/cyfitter_cfg.c **** * Function Name: AnalogSetDefault
 292:Generated_Source\PSoC5/cyfitter_cfg.c **** ********************************************************************************
 293:Generated_Source\PSoC5/cyfitter_cfg.c **** *
 294:Generated_Source\PSoC5/cyfitter_cfg.c **** * Summary:
 295:Generated_Source\PSoC5/cyfitter_cfg.c **** *  Sets up the analog portions of the chip to default values based on chip
 296:Generated_Source\PSoC5/cyfitter_cfg.c **** *  configuration options from the project.
 297:Generated_Source\PSoC5/cyfitter_cfg.c **** *
 298:Generated_Source\PSoC5/cyfitter_cfg.c **** * Parameters:
 299:Generated_Source\PSoC5/cyfitter_cfg.c **** *  void
 300:Generated_Source\PSoC5/cyfitter_cfg.c **** *
 301:Generated_Source\PSoC5/cyfitter_cfg.c **** * Return:
 302:Generated_Source\PSoC5/cyfitter_cfg.c **** *  void
 303:Generated_Source\PSoC5/cyfitter_cfg.c **** *
 304:Generated_Source\PSoC5/cyfitter_cfg.c **** *******************************************************************************/
 305:Generated_Source\PSoC5/cyfitter_cfg.c **** static void AnalogSetDefault(void);
 306:Generated_Source\PSoC5/cyfitter_cfg.c **** static void AnalogSetDefault(void)
 307:Generated_Source\PSoC5/cyfitter_cfg.c **** {
 123              		.loc 1 307 0
 124              		.cfi_startproc
 125              		@ args = 0, pretend = 0, frame = 0
 126              		@ frame_needed = 0, uses_anonymous_args = 0
 127              		@ link register save eliminated.
 308:Generated_Source\PSoC5/cyfitter_cfg.c **** 	uint8 bg_xover_inl_trim = CY_GET_XTND_REG8((void CYFAR *)(CYREG_FLSHID_MFG_CFG_BG_XOVER_INL_TRIM +
 128              		.loc 1 308 0
 129 0000 064B     		ldr	r3, .L10
 130 0002 1B78     		ldrb	r3, [r3]	@ zero_extendqisi2
 131 0004 DBB2     		uxtb	r3, r3
 132              	.LVL12:
 309:Generated_Source\PSoC5/cyfitter_cfg.c **** 	CY_SET_XTND_REG8((void CYFAR *)(CYREG_BG_DFT0), (bg_xover_inl_trim & 0x07u));
 133              		.loc 1 309 0
 134 0006 03F00701 		and	r1, r3, #7
 135 000a 054A     		ldr	r2, .L10+4
 136 000c 1170     		strb	r1, [r2]
 310:Generated_Source\PSoC5/cyfitter_cfg.c **** 	CY_SET_XTND_REG8((void CYFAR *)(CYREG_BG_DFT1), ((bg_xover_inl_trim >> 4) & 0x0Fu));
 137              		.loc 1 310 0
 138 000e 1B09     		lsrs	r3, r3, #4
 139              	.LVL13:
 140 0010 0132     		adds	r2, r2, #1
 141 0012 1370     		strb	r3, [r2]
 311:Generated_Source\PSoC5/cyfitter_cfg.c **** 	CY_SET_XTND_REG8((void CYFAR *)CYREG_PUMP_CR0, 0x44u);
 142              		.loc 1 311 0
ARM GAS  C:\Users\LL_W530\AppData\Local\Temp\ccEOvGRa.s 			page 9


 143 0014 4422     		movs	r2, #68
 144 0016 034B     		ldr	r3, .L10+8
 145 0018 1A70     		strb	r2, [r3]
 146 001a 7047     		bx	lr
 147              	.L11:
 148              		.align	2
 149              	.L10:
 150 001c CF010049 		.word	1224737231
 151 0020 6E580040 		.word	1073764462
 152 0024 76580040 		.word	1073764470
 153              		.cfi_endproc
 154              	.LFE6:
 155              		.size	AnalogSetDefault, .-AnalogSetDefault
 156              		.section	.text.CYMEMZERO,"ax",%progbits
 157              		.align	2
 158              		.thumb
 159              		.thumb_func
 160              		.type	CYMEMZERO, %function
 161              	CYMEMZERO:
 162              	.LFB0:
  64:Generated_Source\PSoC5/cyfitter_cfg.c **** 	(void)memset(s, 0, n);
 163              		.loc 1 64 0
 164              		.cfi_startproc
 165              		@ args = 0, pretend = 0, frame = 0
 166              		@ frame_needed = 0, uses_anonymous_args = 0
 167              	.LVL14:
 168 0000 08B5     		push	{r3, lr}
 169              		.cfi_def_cfa_offset 8
 170              		.cfi_offset 3, -8
 171              		.cfi_offset 14, -4
 172 0002 0A46     		mov	r2, r1
  65:Generated_Source\PSoC5/cyfitter_cfg.c **** }
 173              		.loc 1 65 0
 174 0004 0021     		movs	r1, #0
 175              	.LVL15:
 176 0006 FFF7FEFF 		bl	memset
 177              	.LVL16:
 178 000a 08BD     		pop	{r3, pc}
 179              		.cfi_endproc
 180              	.LFE0:
 181              		.size	CYMEMZERO, .-CYMEMZERO
 182              		.section	.text.CYCONFIGCPY,"ax",%progbits
 183              		.align	2
 184              		.thumb
 185              		.thumb_func
 186              		.type	CYCONFIGCPY, %function
 187              	CYCONFIGCPY:
 188              	.LFB1:
  71:Generated_Source\PSoC5/cyfitter_cfg.c **** 	(void)memcpy(dest, src, n);
 189              		.loc 1 71 0
 190              		.cfi_startproc
 191              		@ args = 0, pretend = 0, frame = 0
 192              		@ frame_needed = 0, uses_anonymous_args = 0
 193              	.LVL17:
 194 0000 08B5     		push	{r3, lr}
 195              		.cfi_def_cfa_offset 8
 196              		.cfi_offset 3, -8
ARM GAS  C:\Users\LL_W530\AppData\Local\Temp\ccEOvGRa.s 			page 10


 197              		.cfi_offset 14, -4
  72:Generated_Source\PSoC5/cyfitter_cfg.c **** }
 198              		.loc 1 72 0
 199 0002 FFF7FEFF 		bl	memcpy
 200              	.LVL18:
 201 0006 08BD     		pop	{r3, pc}
 202              		.cfi_endproc
 203              	.LFE1:
 204              		.size	CYCONFIGCPY, .-CYCONFIGCPY
 205              		.section	.text.ClockSetup,"ax",%progbits
 206              		.align	2
 207              		.thumb
 208              		.thumb_func
 209              		.type	ClockSetup, %function
 210              	ClockSetup:
 211              	.LFB5:
 237:Generated_Source\PSoC5/cyfitter_cfg.c **** 	uint32 timeout;
 212              		.loc 1 237 0
 213              		.cfi_startproc
 214              		@ args = 0, pretend = 0, frame = 0
 215              		@ frame_needed = 0, uses_anonymous_args = 0
 216 0000 38B5     		push	{r3, r4, r5, lr}
 217              		.cfi_def_cfa_offset 16
 218              		.cfi_offset 3, -16
 219              		.cfi_offset 4, -12
 220              		.cfi_offset 5, -8
 221              		.cfi_offset 14, -4
 243:Generated_Source\PSoC5/cyfitter_cfg.c **** 	CY_SET_XTND_REG8((void CYFAR *)(CYREG_CLKDIST_DCFG0_CFG0 + 0x2u), 0x18u);
 222              		.loc 1 243 0
 223 0002 40F65F12 		movw	r2, #2399
 224 0006 264B     		ldr	r3, .L22
 225 0008 1A80     		strh	r2, [r3]	@ movhi
 244:Generated_Source\PSoC5/cyfitter_cfg.c **** 
 226              		.loc 1 244 0
 227 000a 1822     		movs	r2, #24
 228 000c 0233     		adds	r3, r3, #2
 229 000e 1A70     		strb	r2, [r3]
 247:Generated_Source\PSoC5/cyfitter_cfg.c **** 
 230              		.loc 1 247 0
 231 0010 2448     		ldr	r0, .L22+4
 232 0012 2549     		ldr	r1, .L22+8
 233 0014 0422     		movs	r2, #4
 234 0016 FFF7FEFF 		bl	CYCONFIGCPY
 235              	.LVL19:
 250:Generated_Source\PSoC5/cyfitter_cfg.c **** 
 236              		.loc 1 250 0
 237 001a 0622     		movs	r2, #6
 238 001c 234B     		ldr	r3, .L22+12
 239 001e 1A70     		strb	r2, [r3]
 253:Generated_Source\PSoC5/cyfitter_cfg.c **** 	CY_SET_XTND_REG8((void CYFAR *)(CYREG_IMO_TR1), (CY_GET_XTND_REG8((void CYFAR *)CYREG_FLSHID_CUST_
 240              		.loc 1 253 0
 241 0020 5222     		movs	r2, #82
 242 0022 A3F58073 		sub	r3, r3, #256
 243 0026 1A70     		strb	r2, [r3]
 254:Generated_Source\PSoC5/cyfitter_cfg.c **** 
 244              		.loc 1 254 0
 245 0028 214B     		ldr	r3, .L22+16
ARM GAS  C:\Users\LL_W530\AppData\Local\Temp\ccEOvGRa.s 			page 11


 246 002a 1B78     		ldrb	r3, [r3]	@ zero_extendqisi2
 247 002c DBB2     		uxtb	r3, r3
 248 002e 214A     		ldr	r2, .L22+20
 249 0030 1370     		strb	r3, [r2]
 257:Generated_Source\PSoC5/cyfitter_cfg.c **** 	CY_SET_XTND_REG16((void CYFAR *)(CYREG_FASTCLK_PLL_CFG0), 0x1251u);
 250              		.loc 1 257 0
 251 0032 4FF4E162 		mov	r2, #1800
 252 0036 204B     		ldr	r3, .L22+24
 253 0038 1A80     		strh	r2, [r3]	@ movhi
 258:Generated_Source\PSoC5/cyfitter_cfg.c **** 	/* Wait up to 250us for the PLL to lock */
 254              		.loc 1 258 0
 255 003a 41F25122 		movw	r2, #4689
 256 003e 023B     		subs	r3, r3, #2
 257 0040 1A80     		strh	r2, [r3]	@ movhi
 258              	.LVL20:
 260:Generated_Source\PSoC5/cyfitter_cfg.c **** 	for (timeout = 250u / 10u; (timeout > 0u) && (pllLock != 0x03u); timeout--)
 259              		.loc 1 260 0
 260 0042 0024     		movs	r4, #0
 261:Generated_Source\PSoC5/cyfitter_cfg.c **** 	{ 
 261              		.loc 1 261 0
 262 0044 1925     		movs	r5, #25
 263 0046 0CE0     		b	.L17
 264              	.LVL21:
 265              	.L19:
 263:Generated_Source\PSoC5/cyfitter_cfg.c **** 		CyDelayCycles(10u * 48u); /* Delay 10us based on 48MHz clock */
 266              		.loc 1 263 0 discriminator 4
 267 0048 1C4B     		ldr	r3, .L22+28
 268 004a 1B78     		ldrb	r3, [r3]	@ zero_extendqisi2
 269 004c 03F00103 		and	r3, r3, #1
 270 0050 43EA4404 		orr	r4, r3, r4, lsl #1
 271              	.LVL22:
 272 0054 04F00304 		and	r4, r4, #3
 273              	.LVL23:
 264:Generated_Source\PSoC5/cyfitter_cfg.c **** 	}
 274              		.loc 1 264 0 discriminator 4
 275 0058 4FF4F070 		mov	r0, #480
 276 005c FFF7FEFF 		bl	CyDelayCycles
 277              	.LVL24:
 261:Generated_Source\PSoC5/cyfitter_cfg.c **** 	{ 
 278              		.loc 1 261 0 discriminator 4
 279 0060 013D     		subs	r5, r5, #1
 280              	.LVL25:
 281              	.L17:
 261:Generated_Source\PSoC5/cyfitter_cfg.c **** 	{ 
 282              		.loc 1 261 0 is_stmt 0 discriminator 1
 283 0062 0DB1     		cbz	r5, .L18
 261:Generated_Source\PSoC5/cyfitter_cfg.c **** 	{ 
 284              		.loc 1 261 0 discriminator 3
 285 0064 032C     		cmp	r4, #3
 286 0066 EFD1     		bne	.L19
 287              	.L18:
 267:Generated_Source\PSoC5/cyfitter_cfg.c **** 	{
 288              		.loc 1 267 0 is_stmt 1
 289 0068 15B9     		cbnz	r5, .L20
 269:Generated_Source\PSoC5/cyfitter_cfg.c **** 	}
 290              		.loc 1 269 0
 291 006a 0320     		movs	r0, #3
ARM GAS  C:\Users\LL_W530\AppData\Local\Temp\ccEOvGRa.s 			page 12


 292 006c FFF7FEFF 		bl	CyClockStartupError
 293              	.LVL26:
 294              	.L20:
 273:Generated_Source\PSoC5/cyfitter_cfg.c **** 	CY_SET_XTND_REG8((void CYFAR *)(CYREG_CLKDIST_MSTR0), 0x07u);
 295              		.loc 1 273 0
 296 0070 134A     		ldr	r2, .L22+32
 297 0072 4FF48073 		mov	r3, #256
 298 0076 1380     		strh	r3, [r2]	@ movhi
 274:Generated_Source\PSoC5/cyfitter_cfg.c **** 	CY_SET_XTND_REG8((void CYFAR *)(CYREG_CLKDIST_BCFG0), 0x00u);
 299              		.loc 1 274 0
 300 0078 0723     		movs	r3, #7
 301 007a 1370     		strb	r3, [r2]
 275:Generated_Source\PSoC5/cyfitter_cfg.c **** 	CY_SET_XTND_REG8((void CYFAR *)(CYREG_CLKDIST_BCFG2), 0x48u);
 302              		.loc 1 275 0
 303 007c 0023     		movs	r3, #0
 304 007e 1149     		ldr	r1, .L22+36
 305 0080 0B70     		strb	r3, [r1]
 276:Generated_Source\PSoC5/cyfitter_cfg.c **** 	CY_SET_XTND_REG8((void CYFAR *)(CYREG_CLKDIST_MSTR0), 0x00u);
 306              		.loc 1 276 0
 307 0082 4820     		movs	r0, #72
 308 0084 0231     		adds	r1, r1, #2
 309 0086 0870     		strb	r0, [r1]
 277:Generated_Source\PSoC5/cyfitter_cfg.c **** 
 310              		.loc 1 277 0
 311 0088 1370     		strb	r3, [r2]
 280:Generated_Source\PSoC5/cyfitter_cfg.c **** 	CY_SET_XTND_REG8((void CYFAR *)(CYREG_CLKDIST_LD), 0x02u);
 312              		.loc 1 280 0
 313 008a 0532     		adds	r2, r2, #5
 314 008c 1370     		strb	r3, [r2]
 281:Generated_Source\PSoC5/cyfitter_cfg.c **** 
 315              		.loc 1 281 0
 316 008e 0222     		movs	r2, #2
 317 0090 0D4B     		ldr	r3, .L22+40
 318 0092 1A70     		strb	r2, [r3]
 283:Generated_Source\PSoC5/cyfitter_cfg.c **** }
 319              		.loc 1 283 0
 320 0094 0D4A     		ldr	r2, .L22+44
 321 0096 1378     		ldrb	r3, [r2]	@ zero_extendqisi2
 322 0098 43F00103 		orr	r3, r3, #1
 323 009c 1370     		strb	r3, [r2]
 324 009e 38BD     		pop	{r3, r4, r5, pc}
 325              	.LVL27:
 326              	.L23:
 327              		.align	2
 328              	.L22:
 329 00a0 80400040 		.word	1073758336
 330 00a4 00410040 		.word	1073758464
 331 00a8 E00E0048 		.word	1207963360
 332 00ac 00430040 		.word	1073758976
 333 00b0 0F010049 		.word	1224737039
 334 00b4 A1460040 		.word	1073759905
 335 00b8 22420040 		.word	1073758754
 336 00bc 25420040 		.word	1073758757
 337 00c0 04400040 		.word	1073758212
 338 00c4 06400040 		.word	1073758214
 339 00c8 01400040 		.word	1073758209
 340 00cc A2430040 		.word	1073759138
ARM GAS  C:\Users\LL_W530\AppData\Local\Temp\ccEOvGRa.s 			page 13


 341              		.cfi_endproc
 342              	.LFE5:
 343              		.size	ClockSetup, .-ClockSetup
 344              		.section	.text.SetAnalogRoutingPumps,"ax",%progbits
 345              		.align	2
 346              		.global	SetAnalogRoutingPumps
 347              		.thumb
 348              		.thumb_func
 349              		.type	SetAnalogRoutingPumps, %function
 350              	SetAnalogRoutingPumps:
 351              	.LFB7:
 312:Generated_Source\PSoC5/cyfitter_cfg.c **** }
 313:Generated_Source\PSoC5/cyfitter_cfg.c **** 
 314:Generated_Source\PSoC5/cyfitter_cfg.c **** 
 315:Generated_Source\PSoC5/cyfitter_cfg.c **** /*******************************************************************************
 316:Generated_Source\PSoC5/cyfitter_cfg.c **** * Function Name: SetAnalogRoutingPumps
 317:Generated_Source\PSoC5/cyfitter_cfg.c **** ********************************************************************************
 318:Generated_Source\PSoC5/cyfitter_cfg.c **** *
 319:Generated_Source\PSoC5/cyfitter_cfg.c **** * Summary:
 320:Generated_Source\PSoC5/cyfitter_cfg.c **** * Enables or disables the analog pumps feeding analog routing switches.
 321:Generated_Source\PSoC5/cyfitter_cfg.c **** * Intended to be called at startup, based on the Vdda system configuration;
 322:Generated_Source\PSoC5/cyfitter_cfg.c **** * may be called during operation when the user informs us that the Vdda voltage
 323:Generated_Source\PSoC5/cyfitter_cfg.c **** * crossed the pump threshold.
 324:Generated_Source\PSoC5/cyfitter_cfg.c **** *
 325:Generated_Source\PSoC5/cyfitter_cfg.c **** * Parameters:
 326:Generated_Source\PSoC5/cyfitter_cfg.c **** *  enabled - 1 to enable the pumps, 0 to disable the pumps
 327:Generated_Source\PSoC5/cyfitter_cfg.c **** *
 328:Generated_Source\PSoC5/cyfitter_cfg.c **** * Return:
 329:Generated_Source\PSoC5/cyfitter_cfg.c **** *  void
 330:Generated_Source\PSoC5/cyfitter_cfg.c **** *
 331:Generated_Source\PSoC5/cyfitter_cfg.c **** *******************************************************************************/
 332:Generated_Source\PSoC5/cyfitter_cfg.c **** void SetAnalogRoutingPumps(uint8 enabled)
 333:Generated_Source\PSoC5/cyfitter_cfg.c **** {
 352              		.loc 1 333 0
 353              		.cfi_startproc
 354              		@ args = 0, pretend = 0, frame = 0
 355              		@ frame_needed = 0, uses_anonymous_args = 0
 356              		@ link register save eliminated.
 357              	.LVL28:
 334:Generated_Source\PSoC5/cyfitter_cfg.c **** 	uint8 regValue = CY_GET_XTND_REG8((void CYFAR *)CYREG_PUMP_CR0);
 358              		.loc 1 334 0
 359 0000 024A     		ldr	r2, .L25
 360 0002 1378     		ldrb	r3, [r2]	@ zero_extendqisi2
 361 0004 DBB2     		uxtb	r3, r3
 362              	.LVL29:
 335:Generated_Source\PSoC5/cyfitter_cfg.c **** 	if (enabled != 0u)
 336:Generated_Source\PSoC5/cyfitter_cfg.c **** 	{
 337:Generated_Source\PSoC5/cyfitter_cfg.c **** 		regValue |= 0x00u;
 338:Generated_Source\PSoC5/cyfitter_cfg.c **** 	}
 339:Generated_Source\PSoC5/cyfitter_cfg.c **** 	else
 340:Generated_Source\PSoC5/cyfitter_cfg.c **** 	{
 341:Generated_Source\PSoC5/cyfitter_cfg.c **** 		regValue &= (uint8)~0x00u;
 342:Generated_Source\PSoC5/cyfitter_cfg.c **** 	}
 343:Generated_Source\PSoC5/cyfitter_cfg.c **** 	CY_SET_XTND_REG8((void CYFAR *)CYREG_PUMP_CR0, regValue);
 363              		.loc 1 343 0
 364 0006 1370     		strb	r3, [r2]
 365 0008 7047     		bx	lr
ARM GAS  C:\Users\LL_W530\AppData\Local\Temp\ccEOvGRa.s 			page 14


 366              	.L26:
 367 000a 00BF     		.align	2
 368              	.L25:
 369 000c 76580040 		.word	1073764470
 370              		.cfi_endproc
 371              	.LFE7:
 372              		.size	SetAnalogRoutingPumps, .-SetAnalogRoutingPumps
 373              		.section	.text.cyfitter_cfg,"ax",%progbits
 374              		.align	2
 375              		.global	cyfitter_cfg
 376              		.thumb
 377              		.thumb_func
 378              		.type	cyfitter_cfg, %function
 379              	cyfitter_cfg:
 380              	.LFB8:
 344:Generated_Source\PSoC5/cyfitter_cfg.c **** }
 345:Generated_Source\PSoC5/cyfitter_cfg.c **** 
 346:Generated_Source\PSoC5/cyfitter_cfg.c **** #define CY_AMUX_UNUSED CYREG_BOOST_SR
 347:Generated_Source\PSoC5/cyfitter_cfg.c **** 
 348:Generated_Source\PSoC5/cyfitter_cfg.c **** 
 349:Generated_Source\PSoC5/cyfitter_cfg.c **** /*******************************************************************************
 350:Generated_Source\PSoC5/cyfitter_cfg.c **** * Function Name: cyfitter_cfg
 351:Generated_Source\PSoC5/cyfitter_cfg.c **** ********************************************************************************
 352:Generated_Source\PSoC5/cyfitter_cfg.c **** * Summary:
 353:Generated_Source\PSoC5/cyfitter_cfg.c **** *  This function is called by the start-up code for the selected device. It
 354:Generated_Source\PSoC5/cyfitter_cfg.c **** *  performs all of the necessary device configuration based on the design
 355:Generated_Source\PSoC5/cyfitter_cfg.c **** *  settings.  This includes settings from the Design Wide Resources (DWR) such
 356:Generated_Source\PSoC5/cyfitter_cfg.c **** *  as Clocks and Pins as well as any component configuration that is necessary.
 357:Generated_Source\PSoC5/cyfitter_cfg.c **** *
 358:Generated_Source\PSoC5/cyfitter_cfg.c **** * Parameters:  
 359:Generated_Source\PSoC5/cyfitter_cfg.c **** *   void
 360:Generated_Source\PSoC5/cyfitter_cfg.c **** *
 361:Generated_Source\PSoC5/cyfitter_cfg.c **** * Return:
 362:Generated_Source\PSoC5/cyfitter_cfg.c **** *   void
 363:Generated_Source\PSoC5/cyfitter_cfg.c **** *
 364:Generated_Source\PSoC5/cyfitter_cfg.c **** *******************************************************************************/
 365:Generated_Source\PSoC5/cyfitter_cfg.c **** 
 366:Generated_Source\PSoC5/cyfitter_cfg.c **** void cyfitter_cfg(void)
 367:Generated_Source\PSoC5/cyfitter_cfg.c **** {
 381              		.loc 1 367 0
 382              		.cfi_startproc
 383              		@ args = 0, pretend = 0, frame = 0
 384              		@ frame_needed = 0, uses_anonymous_args = 0
 385 0000 38B5     		push	{r3, r4, r5, lr}
 386              		.cfi_def_cfa_offset 16
 387              		.cfi_offset 3, -16
 388              		.cfi_offset 4, -12
 389              		.cfi_offset 5, -8
 390              		.cfi_offset 14, -4
 368:Generated_Source\PSoC5/cyfitter_cfg.c **** #ifdef CYGlobalIntDisable
 369:Generated_Source\PSoC5/cyfitter_cfg.c **** 	/* Disable interrupts by default. Let user enable if/when they want. */
 370:Generated_Source\PSoC5/cyfitter_cfg.c **** 	CYGlobalIntDisable
 391              		.loc 1 370 0
 392              	@ 370 "Generated_Source\PSoC5\cyfitter_cfg.c" 1
 393 0002 72B6     		CPSID   i
 394              	@ 0 "" 2
 371:Generated_Source\PSoC5/cyfitter_cfg.c **** #endif
ARM GAS  C:\Users\LL_W530\AppData\Local\Temp\ccEOvGRa.s 			page 15


 372:Generated_Source\PSoC5/cyfitter_cfg.c **** 
 373:Generated_Source\PSoC5/cyfitter_cfg.c **** 	/* Enable/Disable Debug functionality based on settings from System DWR */
 374:Generated_Source\PSoC5/cyfitter_cfg.c **** 	CY_SET_XTND_REG8((void CYFAR *)CYREG_MLOGIC_DEBUG, (CY_GET_XTND_REG8((void CYFAR *)CYREG_MLOGIC_DE
 395              		.loc 1 374 0
 396              		.thumb
 397 0004 424A     		ldr	r2, .L33
 398 0006 1378     		ldrb	r3, [r2]	@ zero_extendqisi2
 399 0008 43F00403 		orr	r3, r3, #4
 400 000c 1370     		strb	r3, [r2]
 401              	.LVL30:
 402              	.LBB3:
 375:Generated_Source\PSoC5/cyfitter_cfg.c **** 
 376:Generated_Source\PSoC5/cyfitter_cfg.c **** 	{
 377:Generated_Source\PSoC5/cyfitter_cfg.c **** 
 378:Generated_Source\PSoC5/cyfitter_cfg.c **** 		CYPACKED typedef struct {
 379:Generated_Source\PSoC5/cyfitter_cfg.c **** 			void CYFAR *address;
 380:Generated_Source\PSoC5/cyfitter_cfg.c **** 			uint16 size;
 381:Generated_Source\PSoC5/cyfitter_cfg.c **** 		} CYPACKED_ATTR cfg_memset_t;
 382:Generated_Source\PSoC5/cyfitter_cfg.c **** 
 383:Generated_Source\PSoC5/cyfitter_cfg.c **** 
 384:Generated_Source\PSoC5/cyfitter_cfg.c **** 		CYPACKED typedef struct {
 385:Generated_Source\PSoC5/cyfitter_cfg.c **** 			void CYFAR *dest;
 386:Generated_Source\PSoC5/cyfitter_cfg.c **** 			const void CYFAR *src;
 387:Generated_Source\PSoC5/cyfitter_cfg.c **** 			uint16 size;
 388:Generated_Source\PSoC5/cyfitter_cfg.c **** 		} CYPACKED_ATTR cfg_memcpy_t;
 389:Generated_Source\PSoC5/cyfitter_cfg.c **** 
 390:Generated_Source\PSoC5/cyfitter_cfg.c **** 		static const cfg_memset_t CYCODE cfg_memset_list [] = {
 391:Generated_Source\PSoC5/cyfitter_cfg.c **** 			/* address, size */
 392:Generated_Source\PSoC5/cyfitter_cfg.c **** 			{(void CYFAR *)(CYDEV_UCFG_B0_P0_U0_BASE), 1024u},
 393:Generated_Source\PSoC5/cyfitter_cfg.c **** 			{(void CYFAR *)(CYDEV_UCFG_B0_P2_U1_BASE), 1024u},
 394:Generated_Source\PSoC5/cyfitter_cfg.c **** 			{(void CYFAR *)(CYDEV_UCFG_B0_P4_ROUTE_BASE), 1792u},
 395:Generated_Source\PSoC5/cyfitter_cfg.c **** 			{(void CYFAR *)(CYDEV_UCFG_B1_P2_U0_BASE), 2048u},
 396:Generated_Source\PSoC5/cyfitter_cfg.c **** 			{(void CYFAR *)(CYDEV_UCFG_DSI0_BASE), 2560u},
 397:Generated_Source\PSoC5/cyfitter_cfg.c **** 			{(void CYFAR *)(CYDEV_UCFG_DSI12_BASE), 512u},
 398:Generated_Source\PSoC5/cyfitter_cfg.c **** 			{(void CYFAR *)(CYREG_BCTL0_MDCLK_EN), 32u},
 399:Generated_Source\PSoC5/cyfitter_cfg.c **** 		};
 400:Generated_Source\PSoC5/cyfitter_cfg.c **** 
 401:Generated_Source\PSoC5/cyfitter_cfg.c **** 		static const cfg_memcpy_t CYCODE cfg_memcpy_list [] = {
 402:Generated_Source\PSoC5/cyfitter_cfg.c **** 			/* dest, src, size */
 403:Generated_Source\PSoC5/cyfitter_cfg.c **** 			{(void CYFAR *)(CYDEV_UCFG_B0_P2_U0_BASE), BS_UDB_1_3_0_CONFIG_VAL, 128u},
 404:Generated_Source\PSoC5/cyfitter_cfg.c **** 			{(void CYFAR *)(CYDEV_UCFG_B0_P4_U1_BASE), BS_UDB_0_2_0_CONFIG_VAL, 128u},
 405:Generated_Source\PSoC5/cyfitter_cfg.c **** 		};
 406:Generated_Source\PSoC5/cyfitter_cfg.c **** 
 407:Generated_Source\PSoC5/cyfitter_cfg.c **** 		uint8 CYDATA i;
 408:Generated_Source\PSoC5/cyfitter_cfg.c **** 
 409:Generated_Source\PSoC5/cyfitter_cfg.c **** 		/* Zero out critical memory blocks before beginning configuration */
 410:Generated_Source\PSoC5/cyfitter_cfg.c **** 		for (i = 0u; i < (sizeof(cfg_memset_list)/sizeof(cfg_memset_list[0])); i++)
 403              		.loc 1 410 0
 404 000e 0024     		movs	r4, #0
 405 0010 0CE0     		b	.L28
 406              	.LVL31:
 407              	.L29:
 408              	.LBB4:
 411:Generated_Source\PSoC5/cyfitter_cfg.c **** 		{
 412:Generated_Source\PSoC5/cyfitter_cfg.c **** 			const cfg_memset_t CYCODE * CYDATA ms = &cfg_memset_list[i];
 413:Generated_Source\PSoC5/cyfitter_cfg.c **** 			CYMEMZERO(ms->address, (size_t)(uint32)(ms->size));
 409              		.loc 1 413 0 discriminator 3
ARM GAS  C:\Users\LL_W530\AppData\Local\Temp\ccEOvGRa.s 			page 16


 410 0012 4049     		ldr	r1, .L33+4
 411 0014 6300     		lsls	r3, r4, #1
 412 0016 1A19     		adds	r2, r3, r4
 413 0018 5200     		lsls	r2, r2, #1
 414 001a 0A44     		add	r2, r2, r1
 415 001c 2344     		add	r3, r3, r4
 416 001e 5B00     		lsls	r3, r3, #1
 417 0020 C858     		ldr	r0, [r1, r3]	@ unaligned
 418 0022 9188     		ldrh	r1, [r2, #4]
 419 0024 FFF7FEFF 		bl	CYMEMZERO
 420              	.LVL32:
 421              	.LBE4:
 410:Generated_Source\PSoC5/cyfitter_cfg.c **** 		{
 422              		.loc 1 410 0 discriminator 3
 423 0028 0134     		adds	r4, r4, #1
 424              	.LVL33:
 425 002a E4B2     		uxtb	r4, r4
 426              	.LVL34:
 427              	.L28:
 410:Generated_Source\PSoC5/cyfitter_cfg.c **** 		{
 428              		.loc 1 410 0 is_stmt 0 discriminator 1
 429 002c 062C     		cmp	r4, #6
 430 002e F0D9     		bls	.L29
 431 0030 0024     		movs	r4, #0
 432              	.LVL35:
 433 0032 0FE0     		b	.L30
 434              	.LVL36:
 435              	.L31:
 436              	.LBB5:
 414:Generated_Source\PSoC5/cyfitter_cfg.c **** 		}
 415:Generated_Source\PSoC5/cyfitter_cfg.c **** 
 416:Generated_Source\PSoC5/cyfitter_cfg.c **** 		/* Copy device configuration data into registers */
 417:Generated_Source\PSoC5/cyfitter_cfg.c **** 		for (i = 0u; i < (sizeof(cfg_memcpy_list)/sizeof(cfg_memcpy_list[0])); i++)
 418:Generated_Source\PSoC5/cyfitter_cfg.c **** 		{
 419:Generated_Source\PSoC5/cyfitter_cfg.c **** 			const cfg_memcpy_t CYCODE * CYDATA mc = &cfg_memcpy_list[i];
 420:Generated_Source\PSoC5/cyfitter_cfg.c **** 			void * CYDATA destPtr = mc->dest;
 437              		.loc 1 420 0 is_stmt 1 discriminator 3
 438 0034 3749     		ldr	r1, .L33+4
 439 0036 A300     		lsls	r3, r4, #2
 440 0038 1A19     		adds	r2, r3, r4
 441 003a 5200     		lsls	r2, r2, #1
 442 003c 0A44     		add	r2, r2, r1
 443 003e 52F82C0F 		ldr	r0, [r2, #44]!	@ unaligned
 444              	.LVL37:
 421:Generated_Source\PSoC5/cyfitter_cfg.c **** 			const void * CYDATA srcPtr = mc->src;
 422:Generated_Source\PSoC5/cyfitter_cfg.c **** 			uint16 CYDATA numBytes = mc->size;
 445              		.loc 1 422 0 discriminator 3
 446 0042 2344     		add	r3, r3, r4
 447 0044 5B00     		lsls	r3, r3, #1
 448 0046 0B44     		add	r3, r3, r1
 449              	.LVL38:
 423:Generated_Source\PSoC5/cyfitter_cfg.c **** 			CYCONFIGCPY(destPtr, srcPtr, numBytes);
 450              		.loc 1 423 0 discriminator 3
 451 0048 5168     		ldr	r1, [r2, #4]	@ unaligned
 452              	.LVL39:
 453 004a 9A8E     		ldrh	r2, [r3, #52]
 454 004c FFF7FEFF 		bl	CYCONFIGCPY
ARM GAS  C:\Users\LL_W530\AppData\Local\Temp\ccEOvGRa.s 			page 17


 455              	.LVL40:
 456              	.LBE5:
 417:Generated_Source\PSoC5/cyfitter_cfg.c **** 		{
 457              		.loc 1 417 0 discriminator 3
 458 0050 0134     		adds	r4, r4, #1
 459              	.LVL41:
 460 0052 E4B2     		uxtb	r4, r4
 461              	.LVL42:
 462              	.L30:
 417:Generated_Source\PSoC5/cyfitter_cfg.c **** 		{
 463              		.loc 1 417 0 is_stmt 0 discriminator 1
 464 0054 012C     		cmp	r4, #1
 465 0056 EDD9     		bls	.L31
 424:Generated_Source\PSoC5/cyfitter_cfg.c **** 		}
 425:Generated_Source\PSoC5/cyfitter_cfg.c **** 
 426:Generated_Source\PSoC5/cyfitter_cfg.c **** 		cfg_write_bytes32(cy_cfg_addr_table, cy_cfg_data_table);
 466              		.loc 1 426 0 is_stmt 1
 467 0058 4FF09040 		mov	r0, #1207959552
 468 005c 2E49     		ldr	r1, .L33+8
 469 005e FFF7FEFF 		bl	cfg_write_bytes32
 470              	.LVL43:
 427:Generated_Source\PSoC5/cyfitter_cfg.c **** 
 428:Generated_Source\PSoC5/cyfitter_cfg.c **** 		/* Enable digital routing */
 429:Generated_Source\PSoC5/cyfitter_cfg.c **** 		CY_SET_XTND_REG8((void CYFAR *)CYREG_BCTL0_BANK_CTL, CY_GET_XTND_REG8((void CYFAR *)CYREG_BCTL0_B
 471              		.loc 1 429 0
 472 0062 2E4A     		ldr	r2, .L33+12
 473 0064 1378     		ldrb	r3, [r2]	@ zero_extendqisi2
 474 0066 43F00203 		orr	r3, r3, #2
 475 006a 1370     		strb	r3, [r2]
 430:Generated_Source\PSoC5/cyfitter_cfg.c **** 		CY_SET_XTND_REG8((void CYFAR *)CYREG_BCTL1_BANK_CTL, CY_GET_XTND_REG8((void CYFAR *)CYREG_BCTL1_B
 476              		.loc 1 430 0
 477 006c 1032     		adds	r2, r2, #16
 478 006e 1378     		ldrb	r3, [r2]	@ zero_extendqisi2
 479 0070 43F00203 		orr	r3, r3, #2
 480 0074 1370     		strb	r3, [r2]
 431:Generated_Source\PSoC5/cyfitter_cfg.c **** 
 432:Generated_Source\PSoC5/cyfitter_cfg.c **** 		/* Enable UDB array */
 433:Generated_Source\PSoC5/cyfitter_cfg.c **** 		CY_SET_XTND_REG8((void CYFAR *)CYREG_PM_ACT_CFG0, CY_GET_XTND_REG8((void CYFAR *)CYREG_PM_ACT_CFG
 481              		.loc 1 433 0
 482 0076 2A4C     		ldr	r4, .L33+16
 483              	.LVL44:
 484 0078 2378     		ldrb	r3, [r4]	@ zero_extendqisi2
 485 007a 43F04003 		orr	r3, r3, #64
 486 007e 2370     		strb	r3, [r4]
 434:Generated_Source\PSoC5/cyfitter_cfg.c **** 		CY_SET_XTND_REG8((void CYFAR *)CYREG_PM_AVAIL_CR2, CY_GET_XTND_REG8((void CYFAR *)CYREG_PM_AVAIL_
 487              		.loc 1 434 0
 488 0080 A2F58632 		sub	r2, r2, #68608
 489 0084 513A     		subs	r2, r2, #81
 490 0086 1378     		ldrb	r3, [r2]	@ zero_extendqisi2
 491 0088 43F01003 		orr	r3, r3, #16
 492 008c 1370     		strb	r3, [r2]
 493              	.LBE3:
 435:Generated_Source\PSoC5/cyfitter_cfg.c **** 	}
 436:Generated_Source\PSoC5/cyfitter_cfg.c **** 
 437:Generated_Source\PSoC5/cyfitter_cfg.c **** 
 438:Generated_Source\PSoC5/cyfitter_cfg.c **** 	/* Perform second pass device configuration. These items must be configured in specific order afte
 439:Generated_Source\PSoC5/cyfitter_cfg.c **** 	CYCONFIGCPY((void CYFAR *)(CYREG_PRT0_DM0), (const void CYFAR *)(BS_IOPINS0_0_VAL), 8u);
ARM GAS  C:\Users\LL_W530\AppData\Local\Temp\ccEOvGRa.s 			page 18


 494              		.loc 1 439 0
 495 008e 2548     		ldr	r0, .L33+20
 496 0090 2549     		ldr	r1, .L33+24
 497 0092 0822     		movs	r2, #8
 498 0094 FFF7FEFF 		bl	CYCONFIGCPY
 499              	.LVL45:
 440:Generated_Source\PSoC5/cyfitter_cfg.c **** 	CYCONFIGCPY((void CYFAR *)(CYREG_PRT12_DM0), (const void CYFAR *)(BS_IOPINS0_7_VAL), 8u);
 500              		.loc 1 440 0
 501 0098 2448     		ldr	r0, .L33+28
 502 009a 2549     		ldr	r1, .L33+32
 503 009c 0822     		movs	r2, #8
 504 009e FFF7FEFF 		bl	CYCONFIGCPY
 505              	.LVL46:
 441:Generated_Source\PSoC5/cyfitter_cfg.c **** 	CYCONFIGCPY((void CYFAR *)(CYREG_PRT15_DR), (const void CYFAR *)(BS_IOPINS0_8_VAL), 10u);
 506              		.loc 1 441 0
 507 00a2 2448     		ldr	r0, .L33+36
 508 00a4 2449     		ldr	r1, .L33+40
 509 00a6 0A22     		movs	r2, #10
 510 00a8 FFF7FEFF 		bl	CYCONFIGCPY
 511              	.LVL47:
 442:Generated_Source\PSoC5/cyfitter_cfg.c **** 	CYCONFIGCPY((void CYFAR *)(CYREG_PRT1_DR), (const void CYFAR *)(BS_IOPINS0_1_VAL), 10u);
 512              		.loc 1 442 0
 513 00ac 2348     		ldr	r0, .L33+44
 514 00ae 2449     		ldr	r1, .L33+48
 515 00b0 0A22     		movs	r2, #10
 516 00b2 FFF7FEFF 		bl	CYCONFIGCPY
 517              	.LVL48:
 443:Generated_Source\PSoC5/cyfitter_cfg.c **** 	CYCONFIGCPY((void CYFAR *)(CYREG_PRT2_DM0), (const void CYFAR *)(BS_IOPINS0_2_VAL), 8u);
 518              		.loc 1 443 0
 519 00b6 2348     		ldr	r0, .L33+52
 520 00b8 2349     		ldr	r1, .L33+56
 521 00ba 0822     		movs	r2, #8
 522 00bc FFF7FEFF 		bl	CYCONFIGCPY
 523              	.LVL49:
 444:Generated_Source\PSoC5/cyfitter_cfg.c **** 	CYCONFIGCPY((void CYFAR *)(CYREG_PRT3_DM0), (const void CYFAR *)(BS_IOPINS0_3_VAL), 8u);
 524              		.loc 1 444 0
 525 00c0 2248     		ldr	r0, .L33+60
 526 00c2 2349     		ldr	r1, .L33+64
 527 00c4 0822     		movs	r2, #8
 528 00c6 FFF7FEFF 		bl	CYCONFIGCPY
 529              	.LVL50:
 445:Generated_Source\PSoC5/cyfitter_cfg.c **** 	CYCONFIGCPY((void CYFAR *)(CYREG_PRT4_DM0), (const void CYFAR *)(BS_IOPINS0_4_VAL), 8u);
 530              		.loc 1 445 0
 531 00ca 2248     		ldr	r0, .L33+68
 532 00cc 2249     		ldr	r1, .L33+72
 533 00ce 0822     		movs	r2, #8
 534 00d0 FFF7FEFF 		bl	CYCONFIGCPY
 535              	.LVL51:
 446:Generated_Source\PSoC5/cyfitter_cfg.c **** 	CYCONFIGCPY((void CYFAR *)(CYREG_PRT5_DR), (const void CYFAR *)(BS_IOPINS0_5_VAL), 10u);
 536              		.loc 1 446 0
 537 00d4 2148     		ldr	r0, .L33+76
 538 00d6 2249     		ldr	r1, .L33+80
 539 00d8 0A22     		movs	r2, #10
 540 00da FFF7FEFF 		bl	CYCONFIGCPY
 541              	.LVL52:
 447:Generated_Source\PSoC5/cyfitter_cfg.c **** 	CYCONFIGCPY((void CYFAR *)(CYREG_PRT6_DR), (const void CYFAR *)(BS_IOPINS0_6_VAL), 10u);
 542              		.loc 1 447 0
ARM GAS  C:\Users\LL_W530\AppData\Local\Temp\ccEOvGRa.s 			page 19


 543 00de 2148     		ldr	r0, .L33+84
 544 00e0 2149     		ldr	r1, .L33+88
 545 00e2 0A22     		movs	r2, #10
 546 00e4 FFF7FEFF 		bl	CYCONFIGCPY
 547              	.LVL53:
 448:Generated_Source\PSoC5/cyfitter_cfg.c **** 	/* Switch Boost to the precision bandgap reference from its internal reference */
 449:Generated_Source\PSoC5/cyfitter_cfg.c **** 	CY_SET_REG8((void CYXDATA *)CYREG_BOOST_CR2, (CY_GET_REG8((void CYXDATA *)CYREG_BOOST_CR2) | 0x08u
 548              		.loc 1 449 0
 549 00e8 204A     		ldr	r2, .L33+92
 550 00ea 1378     		ldrb	r3, [r2]	@ zero_extendqisi2
 551 00ec 43F00803 		orr	r3, r3, #8
 552 00f0 1370     		strb	r3, [r2]
 450:Generated_Source\PSoC5/cyfitter_cfg.c **** 
 451:Generated_Source\PSoC5/cyfitter_cfg.c **** 	/* Set Flash Cycles based on max possible frequency in case a glitch occurs during ClockSetup(). *
 452:Generated_Source\PSoC5/cyfitter_cfg.c **** 	CY_SET_XTND_REG8((void CYFAR *)(CYREG_CACHE_CC_CTL), (((CYDEV_INSTRUCT_CACHE_ENABLED) != 0) ? 0x61
 553              		.loc 1 452 0
 554 00f2 1F4D     		ldr	r5, .L33+96
 555 00f4 6123     		movs	r3, #97
 556 00f6 2B70     		strb	r3, [r5]
 453:Generated_Source\PSoC5/cyfitter_cfg.c **** 	/* Setup clocks based on selections from Clock DWR */
 454:Generated_Source\PSoC5/cyfitter_cfg.c **** 	ClockSetup();
 557              		.loc 1 454 0
 558 00f8 FFF7FEFF 		bl	ClockSetup
 559              	.LVL54:
 455:Generated_Source\PSoC5/cyfitter_cfg.c **** 	/* Set Flash Cycles based on newly configured 24.00MHz Bus Clock. */
 456:Generated_Source\PSoC5/cyfitter_cfg.c **** 	CY_SET_XTND_REG8((void CYFAR *)(CYREG_CACHE_CC_CTL), (((CYDEV_INSTRUCT_CACHE_ENABLED) != 0) ? 0x81
 560              		.loc 1 456 0
 561 00fc 8123     		movs	r3, #129
 562 00fe 2B70     		strb	r3, [r5]
 457:Generated_Source\PSoC5/cyfitter_cfg.c **** 
 458:Generated_Source\PSoC5/cyfitter_cfg.c **** 	/* Perform basic analog initialization to defaults */
 459:Generated_Source\PSoC5/cyfitter_cfg.c **** 	AnalogSetDefault();
 563              		.loc 1 459 0
 564 0100 FFF7FEFF 		bl	AnalogSetDefault
 565              	.LVL55:
 460:Generated_Source\PSoC5/cyfitter_cfg.c **** 
 461:Generated_Source\PSoC5/cyfitter_cfg.c **** 	/* Configure alternate active mode */
 462:Generated_Source\PSoC5/cyfitter_cfg.c **** 	CYCONFIGCPY((void CYFAR *)CYDEV_PM_STBY_BASE, (const void CYFAR *)CYDEV_PM_ACT_BASE, 14u);
 566              		.loc 1 462 0
 567 0104 1B48     		ldr	r0, .L33+100
 568 0106 2146     		mov	r1, r4
 569 0108 0E22     		movs	r2, #14
 570 010a FFF7FEFF 		bl	CYCONFIGCPY
 571              	.LVL56:
 572 010e 38BD     		pop	{r3, r4, r5, pc}
 573              	.L34:
 574              		.align	2
 575              	.L33:
 576 0110 E8460040 		.word	1073759976
 577 0114 00000000 		.word	.LANCHOR0
 578 0118 9C000048 		.word	1207959708
 579 011c 03500140 		.word	1073827843
 580 0120 A0430040 		.word	1073759136
 581 0124 02510040 		.word	1073762562
 582 0128 880E0048 		.word	1207963272
 583 012c C2510040 		.word	1073762754
 584 0130 900E0048 		.word	1207963280
ARM GAS  C:\Users\LL_W530\AppData\Local\Temp\ccEOvGRa.s 			page 20


 585 0134 F0510040 		.word	1073762800
 586 0138 980E0048 		.word	1207963288
 587 013c 10510040 		.word	1073762576
 588 0140 A40E0048 		.word	1207963300
 589 0144 22510040 		.word	1073762594
 590 0148 B00E0048 		.word	1207963312
 591 014c 32510040 		.word	1073762610
 592 0150 B80E0048 		.word	1207963320
 593 0154 42510040 		.word	1073762626
 594 0158 C00E0048 		.word	1207963328
 595 015c 50510040 		.word	1073762640
 596 0160 C80E0048 		.word	1207963336
 597 0164 60510040 		.word	1073762656
 598 0168 D40E0048 		.word	1207963348
 599 016c 22430040 		.word	1073759010
 600 0170 00480040 		.word	1073760256
 601 0174 B0430040 		.word	1073759152
 602              		.cfi_endproc
 603              	.LFE8:
 604              		.size	cyfitter_cfg, .-cyfitter_cfg
 605              		.section	.rodata
 606              		.align	2
 607              		.set	.LANCHOR0,. + 0
 608              		.type	cfg_memset_list.4913, %object
 609              		.size	cfg_memset_list.4913, 42
 610              	cfg_memset_list.4913:
 611 0000 00000140 		.word	1073807360
 612 0004 0004     		.short	1024
 613 0006 80040140 		.4byte	1073808512
 614 000a 0004     		.short	1024
 615 000c 00090140 		.word	1073809664
 616 0010 0007     		.short	1792
 617 0012 00140140 		.4byte	1073812480
 618 0016 0008     		.short	2048
 619 0018 00400140 		.word	1073823744
 620 001c 000A     		.short	2560
 621 001e 004C0140 		.4byte	1073826816
 622 0022 0002     		.short	512
 623 0024 00500140 		.word	1073827840
 624 0028 2000     		.short	32
 625 002a 0000     		.space	2
 626              		.type	cfg_memcpy_list.4914, %object
 627              		.size	cfg_memcpy_list.4914, 20
 628              	cfg_memcpy_list.4914:
 629 002c 00040140 		.word	1073808384
 630 0030 880D0048 		.word	1207963016
 631 0034 8000     		.short	128
 632 0036 80080140 		.4byte	1073809536
 633 003a 080E0048 		.4byte	1207963144
 634 003e 8000     		.short	128
 635              		.text
 636              	.Letext0:
 637              		.file 2 "c:\\program files (x86)\\cypress\\psoc creator\\4.0\\psoc creator\\import\\gnu\\arm\\4.9.
 638              		.file 3 "Generated_Source\\PSoC5\\cytypes.h"
 639              		.file 4 "Generated_Source\\PSoC5\\CyLib.h"