ARM GAS  C:\Users\lilu1\AppData\Local\Temp\ccJDXxzB.s 			page 1


   1              		.syntax unified
   2              		.cpu cortex-m3
   3              		.fpu softvfp
   4              		.eabi_attribute 20, 1
   5              		.eabi_attribute 21, 1
   6              		.eabi_attribute 23, 3
   7              		.eabi_attribute 24, 1
   8              		.eabi_attribute 25, 1
   9              		.eabi_attribute 26, 1
  10              		.eabi_attribute 30, 1
  11              		.eabi_attribute 34, 1
  12              		.eabi_attribute 18, 4
  13              		.thumb
  14              		.file	"ADC_SAR_2.c"
  15              		.text
  16              	.Ltext0:
  17              		.cfi_sections	.debug_frame
  18              		.section	.text.ADC_SAR_2_CalcGain,"ax",%progbits
  19              		.align	2
  20              		.thumb
  21              		.thumb_func
  22              		.type	ADC_SAR_2_CalcGain, %function
  23              	ADC_SAR_2_CalcGain:
  24              	.LFB12:
  25              		.file 1 ".\\Generated_Source\\PSoC5\\ADC_SAR_2.c"
   1:.\Generated_Source\PSoC5/ADC_SAR_2.c **** /*******************************************************************************
   2:.\Generated_Source\PSoC5/ADC_SAR_2.c **** * File Name: ADC_SAR_2.c
   3:.\Generated_Source\PSoC5/ADC_SAR_2.c **** * Version 3.0
   4:.\Generated_Source\PSoC5/ADC_SAR_2.c **** *
   5:.\Generated_Source\PSoC5/ADC_SAR_2.c **** * Description:
   6:.\Generated_Source\PSoC5/ADC_SAR_2.c **** *  This file provides the source code to the API for the Successive
   7:.\Generated_Source\PSoC5/ADC_SAR_2.c **** *  approximation ADC Component.
   8:.\Generated_Source\PSoC5/ADC_SAR_2.c **** *
   9:.\Generated_Source\PSoC5/ADC_SAR_2.c **** * Note:
  10:.\Generated_Source\PSoC5/ADC_SAR_2.c **** *
  11:.\Generated_Source\PSoC5/ADC_SAR_2.c **** ********************************************************************************
  12:.\Generated_Source\PSoC5/ADC_SAR_2.c **** * Copyright 2008-2015, Cypress Semiconductor Corporation.  All rights reserved.
  13:.\Generated_Source\PSoC5/ADC_SAR_2.c **** * You may use this file only in accordance with the license, terms, conditions,
  14:.\Generated_Source\PSoC5/ADC_SAR_2.c **** * disclaimers, and limitations in the end user license agreement accompanying
  15:.\Generated_Source\PSoC5/ADC_SAR_2.c **** * the software package with which this file was provided.
  16:.\Generated_Source\PSoC5/ADC_SAR_2.c **** *******************************************************************************/
  17:.\Generated_Source\PSoC5/ADC_SAR_2.c **** 
  18:.\Generated_Source\PSoC5/ADC_SAR_2.c **** #include "CyLib.h"
  19:.\Generated_Source\PSoC5/ADC_SAR_2.c **** #include "ADC_SAR_2.h"
  20:.\Generated_Source\PSoC5/ADC_SAR_2.c **** 
  21:.\Generated_Source\PSoC5/ADC_SAR_2.c **** #if(ADC_SAR_2_DEFAULT_INTERNAL_CLK)
  22:.\Generated_Source\PSoC5/ADC_SAR_2.c ****     #include "ADC_SAR_2_theACLK.h"
  23:.\Generated_Source\PSoC5/ADC_SAR_2.c **** #endif /* End ADC_SAR_2_DEFAULT_INTERNAL_CLK */
  24:.\Generated_Source\PSoC5/ADC_SAR_2.c **** 
  25:.\Generated_Source\PSoC5/ADC_SAR_2.c **** 
  26:.\Generated_Source\PSoC5/ADC_SAR_2.c **** /***************************************
  27:.\Generated_Source\PSoC5/ADC_SAR_2.c **** * Forward function references
  28:.\Generated_Source\PSoC5/ADC_SAR_2.c **** ***************************************/
  29:.\Generated_Source\PSoC5/ADC_SAR_2.c **** static void ADC_SAR_2_CalcGain(uint8 resolution);
  30:.\Generated_Source\PSoC5/ADC_SAR_2.c **** 
  31:.\Generated_Source\PSoC5/ADC_SAR_2.c **** 
  32:.\Generated_Source\PSoC5/ADC_SAR_2.c **** /***************************************
ARM GAS  C:\Users\lilu1\AppData\Local\Temp\ccJDXxzB.s 			page 2


  33:.\Generated_Source\PSoC5/ADC_SAR_2.c **** * Global data allocation
  34:.\Generated_Source\PSoC5/ADC_SAR_2.c **** ***************************************/
  35:.\Generated_Source\PSoC5/ADC_SAR_2.c **** uint8 ADC_SAR_2_initVar = 0u;
  36:.\Generated_Source\PSoC5/ADC_SAR_2.c **** volatile int16 ADC_SAR_2_offset;
  37:.\Generated_Source\PSoC5/ADC_SAR_2.c **** volatile int16 ADC_SAR_2_countsPerVolt;     /* Obsolete Gain compensation */
  38:.\Generated_Source\PSoC5/ADC_SAR_2.c **** volatile int32 ADC_SAR_2_countsPer10Volt;   /* Gain compensation */
  39:.\Generated_Source\PSoC5/ADC_SAR_2.c **** volatile int16 ADC_SAR_2_shift;
  40:.\Generated_Source\PSoC5/ADC_SAR_2.c **** 
  41:.\Generated_Source\PSoC5/ADC_SAR_2.c **** 
  42:.\Generated_Source\PSoC5/ADC_SAR_2.c **** /*******************************************************************************
  43:.\Generated_Source\PSoC5/ADC_SAR_2.c **** * Function Name: ADC_SAR_2_Start
  44:.\Generated_Source\PSoC5/ADC_SAR_2.c **** ********************************************************************************
  45:.\Generated_Source\PSoC5/ADC_SAR_2.c **** *
  46:.\Generated_Source\PSoC5/ADC_SAR_2.c **** * Summary:
  47:.\Generated_Source\PSoC5/ADC_SAR_2.c **** *  This is the preferred method to begin component operation.
  48:.\Generated_Source\PSoC5/ADC_SAR_2.c **** *  ADC_SAR_2_Start() sets the initVar variable, calls the
  49:.\Generated_Source\PSoC5/ADC_SAR_2.c **** *  ADC_SAR_2_Init() function, and then calls the
  50:.\Generated_Source\PSoC5/ADC_SAR_2.c **** *  ADC_SAR_2_Enable() function.
  51:.\Generated_Source\PSoC5/ADC_SAR_2.c **** *
  52:.\Generated_Source\PSoC5/ADC_SAR_2.c **** * Parameters:
  53:.\Generated_Source\PSoC5/ADC_SAR_2.c **** *  None.
  54:.\Generated_Source\PSoC5/ADC_SAR_2.c **** *
  55:.\Generated_Source\PSoC5/ADC_SAR_2.c **** * Return:
  56:.\Generated_Source\PSoC5/ADC_SAR_2.c **** *  None.
  57:.\Generated_Source\PSoC5/ADC_SAR_2.c **** *
  58:.\Generated_Source\PSoC5/ADC_SAR_2.c **** * Global variables:
  59:.\Generated_Source\PSoC5/ADC_SAR_2.c **** *  The ADC_SAR_2_initVar variable is used to indicate when/if initial
  60:.\Generated_Source\PSoC5/ADC_SAR_2.c **** *  configuration of this component has happened. The variable is initialized to
  61:.\Generated_Source\PSoC5/ADC_SAR_2.c **** *  zero and set to 1 the first time ADC_Start() is called. This allows for
  62:.\Generated_Source\PSoC5/ADC_SAR_2.c **** *  component Re-Start without re-initialization in all subsequent calls to the
  63:.\Generated_Source\PSoC5/ADC_SAR_2.c **** *  ADC_SAR_2_Start() routine.
  64:.\Generated_Source\PSoC5/ADC_SAR_2.c **** *  If re-initialization of the component is required the variable should be set
  65:.\Generated_Source\PSoC5/ADC_SAR_2.c **** *  to zero before call of ADC_SAR_2_Start() routine, or the user may call
  66:.\Generated_Source\PSoC5/ADC_SAR_2.c **** *  ADC_SAR_2_Init() and ADC_SAR_2_Enable() as done in the
  67:.\Generated_Source\PSoC5/ADC_SAR_2.c **** *  ADC_SAR_2_Start() routine.
  68:.\Generated_Source\PSoC5/ADC_SAR_2.c **** *
  69:.\Generated_Source\PSoC5/ADC_SAR_2.c **** * Side Effect:
  70:.\Generated_Source\PSoC5/ADC_SAR_2.c **** *  If the initVar variable is already set, this function only calls the
  71:.\Generated_Source\PSoC5/ADC_SAR_2.c **** *  ADC_SAR_2_Enable() function.
  72:.\Generated_Source\PSoC5/ADC_SAR_2.c **** *
  73:.\Generated_Source\PSoC5/ADC_SAR_2.c **** *******************************************************************************/
  74:.\Generated_Source\PSoC5/ADC_SAR_2.c **** void ADC_SAR_2_Start(void)
  75:.\Generated_Source\PSoC5/ADC_SAR_2.c **** {
  76:.\Generated_Source\PSoC5/ADC_SAR_2.c **** 
  77:.\Generated_Source\PSoC5/ADC_SAR_2.c ****     /* If not Initialized then initialize all required hardware and software */
  78:.\Generated_Source\PSoC5/ADC_SAR_2.c ****     if(ADC_SAR_2_initVar == 0u)
  79:.\Generated_Source\PSoC5/ADC_SAR_2.c ****     {
  80:.\Generated_Source\PSoC5/ADC_SAR_2.c ****         ADC_SAR_2_Init();
  81:.\Generated_Source\PSoC5/ADC_SAR_2.c ****         ADC_SAR_2_initVar = 1u;
  82:.\Generated_Source\PSoC5/ADC_SAR_2.c ****     }
  83:.\Generated_Source\PSoC5/ADC_SAR_2.c ****     ADC_SAR_2_Enable();
  84:.\Generated_Source\PSoC5/ADC_SAR_2.c **** }
  85:.\Generated_Source\PSoC5/ADC_SAR_2.c **** 
  86:.\Generated_Source\PSoC5/ADC_SAR_2.c **** 
  87:.\Generated_Source\PSoC5/ADC_SAR_2.c **** /*******************************************************************************
  88:.\Generated_Source\PSoC5/ADC_SAR_2.c **** * Function Name: ADC_SAR_2_Init
  89:.\Generated_Source\PSoC5/ADC_SAR_2.c **** ********************************************************************************
ARM GAS  C:\Users\lilu1\AppData\Local\Temp\ccJDXxzB.s 			page 3


  90:.\Generated_Source\PSoC5/ADC_SAR_2.c **** *
  91:.\Generated_Source\PSoC5/ADC_SAR_2.c **** * Summary:
  92:.\Generated_Source\PSoC5/ADC_SAR_2.c **** *  Initialize component's parameters to the parameters set by user in the
  93:.\Generated_Source\PSoC5/ADC_SAR_2.c **** *  customizer of the component placed onto schematic. Usually called in
  94:.\Generated_Source\PSoC5/ADC_SAR_2.c **** *  ADC_SAR_2_Start().
  95:.\Generated_Source\PSoC5/ADC_SAR_2.c **** *
  96:.\Generated_Source\PSoC5/ADC_SAR_2.c **** * Parameters:
  97:.\Generated_Source\PSoC5/ADC_SAR_2.c **** *  None.
  98:.\Generated_Source\PSoC5/ADC_SAR_2.c **** *
  99:.\Generated_Source\PSoC5/ADC_SAR_2.c **** * Return:
 100:.\Generated_Source\PSoC5/ADC_SAR_2.c **** *  None.
 101:.\Generated_Source\PSoC5/ADC_SAR_2.c **** *
 102:.\Generated_Source\PSoC5/ADC_SAR_2.c **** * Global variables:
 103:.\Generated_Source\PSoC5/ADC_SAR_2.c **** *  The ADC_SAR_2_offset variable is initialized to 0.
 104:.\Generated_Source\PSoC5/ADC_SAR_2.c **** *
 105:.\Generated_Source\PSoC5/ADC_SAR_2.c **** *******************************************************************************/
 106:.\Generated_Source\PSoC5/ADC_SAR_2.c **** void ADC_SAR_2_Init(void)
 107:.\Generated_Source\PSoC5/ADC_SAR_2.c **** {
 108:.\Generated_Source\PSoC5/ADC_SAR_2.c **** 
 109:.\Generated_Source\PSoC5/ADC_SAR_2.c ****     /* This is only valid if there is an internal clock */
 110:.\Generated_Source\PSoC5/ADC_SAR_2.c ****     #if(ADC_SAR_2_DEFAULT_INTERNAL_CLK)
 111:.\Generated_Source\PSoC5/ADC_SAR_2.c ****         ADC_SAR_2_theACLK_SetMode(CYCLK_DUTY);
 112:.\Generated_Source\PSoC5/ADC_SAR_2.c ****     #endif /* End ADC_SAR_2_DEFAULT_INTERNAL_CLK */
 113:.\Generated_Source\PSoC5/ADC_SAR_2.c **** 
 114:.\Generated_Source\PSoC5/ADC_SAR_2.c ****     #if(ADC_SAR_2_IRQ_REMOVE == 0u)
 115:.\Generated_Source\PSoC5/ADC_SAR_2.c ****         /* Start and set interrupt vector */
 116:.\Generated_Source\PSoC5/ADC_SAR_2.c ****         CyIntSetPriority(ADC_SAR_2_INTC_NUMBER, ADC_SAR_2_INTC_PRIOR_NUMBER);
 117:.\Generated_Source\PSoC5/ADC_SAR_2.c ****         (void)CyIntSetVector(ADC_SAR_2_INTC_NUMBER, &ADC_SAR_2_ISR);
 118:.\Generated_Source\PSoC5/ADC_SAR_2.c ****     #endif   /* End ADC_SAR_2_IRQ_REMOVE */
 119:.\Generated_Source\PSoC5/ADC_SAR_2.c **** 
 120:.\Generated_Source\PSoC5/ADC_SAR_2.c ****     /* Enable IRQ mode*/
 121:.\Generated_Source\PSoC5/ADC_SAR_2.c ****     ADC_SAR_2_SAR_CSR1_REG |= ADC_SAR_2_SAR_IRQ_MASK_EN | ADC_SAR_2_SAR_IRQ_MODE_EDGE;
 122:.\Generated_Source\PSoC5/ADC_SAR_2.c **** 
 123:.\Generated_Source\PSoC5/ADC_SAR_2.c ****     /*Set SAR ADC resolution ADC */
 124:.\Generated_Source\PSoC5/ADC_SAR_2.c ****     ADC_SAR_2_SetResolution(ADC_SAR_2_DEFAULT_RESOLUTION);
 125:.\Generated_Source\PSoC5/ADC_SAR_2.c ****     ADC_SAR_2_offset = 0;
 126:.\Generated_Source\PSoC5/ADC_SAR_2.c **** }
 127:.\Generated_Source\PSoC5/ADC_SAR_2.c **** 
 128:.\Generated_Source\PSoC5/ADC_SAR_2.c **** 
 129:.\Generated_Source\PSoC5/ADC_SAR_2.c **** /*******************************************************************************
 130:.\Generated_Source\PSoC5/ADC_SAR_2.c **** * Function Name: ADC_SAR_2_Enable
 131:.\Generated_Source\PSoC5/ADC_SAR_2.c **** ********************************************************************************
 132:.\Generated_Source\PSoC5/ADC_SAR_2.c **** *
 133:.\Generated_Source\PSoC5/ADC_SAR_2.c **** * Summary:
 134:.\Generated_Source\PSoC5/ADC_SAR_2.c **** *  Enables the reference, clock and power for SAR ADC.
 135:.\Generated_Source\PSoC5/ADC_SAR_2.c **** *
 136:.\Generated_Source\PSoC5/ADC_SAR_2.c **** * Parameters:
 137:.\Generated_Source\PSoC5/ADC_SAR_2.c **** *  None.
 138:.\Generated_Source\PSoC5/ADC_SAR_2.c **** *
 139:.\Generated_Source\PSoC5/ADC_SAR_2.c **** * Return:
 140:.\Generated_Source\PSoC5/ADC_SAR_2.c **** *  None.
 141:.\Generated_Source\PSoC5/ADC_SAR_2.c **** *
 142:.\Generated_Source\PSoC5/ADC_SAR_2.c **** *******************************************************************************/
 143:.\Generated_Source\PSoC5/ADC_SAR_2.c **** void ADC_SAR_2_Enable(void)
 144:.\Generated_Source\PSoC5/ADC_SAR_2.c **** {
 145:.\Generated_Source\PSoC5/ADC_SAR_2.c ****     uint8 tmpReg;
 146:.\Generated_Source\PSoC5/ADC_SAR_2.c ****     uint8 enableInterrupts;
ARM GAS  C:\Users\lilu1\AppData\Local\Temp\ccJDXxzB.s 			page 4


 147:.\Generated_Source\PSoC5/ADC_SAR_2.c ****     enableInterrupts = CyEnterCriticalSection();
 148:.\Generated_Source\PSoC5/ADC_SAR_2.c **** 
 149:.\Generated_Source\PSoC5/ADC_SAR_2.c ****     /* Enable the SAR ADC block in Active Power Mode */
 150:.\Generated_Source\PSoC5/ADC_SAR_2.c ****     ADC_SAR_2_PWRMGR_SAR_REG |= ADC_SAR_2_ACT_PWR_SAR_EN;
 151:.\Generated_Source\PSoC5/ADC_SAR_2.c **** 
 152:.\Generated_Source\PSoC5/ADC_SAR_2.c ****      /* Enable the SAR ADC in Standby Power Mode*/
 153:.\Generated_Source\PSoC5/ADC_SAR_2.c ****     ADC_SAR_2_STBY_PWRMGR_SAR_REG |= ADC_SAR_2_STBY_PWR_SAR_EN;
 154:.\Generated_Source\PSoC5/ADC_SAR_2.c **** 
 155:.\Generated_Source\PSoC5/ADC_SAR_2.c ****     /* This is only valid if there is an internal clock */
 156:.\Generated_Source\PSoC5/ADC_SAR_2.c ****     #if(ADC_SAR_2_DEFAULT_INTERNAL_CLK)
 157:.\Generated_Source\PSoC5/ADC_SAR_2.c ****         ADC_SAR_2_PWRMGR_CLK_REG |= ADC_SAR_2_ACT_PWR_CLK_EN;
 158:.\Generated_Source\PSoC5/ADC_SAR_2.c ****         ADC_SAR_2_STBY_PWRMGR_CLK_REG |= ADC_SAR_2_STBY_PWR_CLK_EN;
 159:.\Generated_Source\PSoC5/ADC_SAR_2.c ****     #endif /* End ADC_SAR_2_DEFAULT_INTERNAL_CLK */
 160:.\Generated_Source\PSoC5/ADC_SAR_2.c **** 
 161:.\Generated_Source\PSoC5/ADC_SAR_2.c ****     /* Enable VCM buffer and Enable Int Ref Amp */
 162:.\Generated_Source\PSoC5/ADC_SAR_2.c ****     tmpReg = ADC_SAR_2_SAR_CSR3_REG;
 163:.\Generated_Source\PSoC5/ADC_SAR_2.c ****     tmpReg |= ADC_SAR_2_SAR_EN_BUF_VCM_EN;
 164:.\Generated_Source\PSoC5/ADC_SAR_2.c ****     /* PD_BUF_VREF is OFF in External reference or Vdda reference mode */
 165:.\Generated_Source\PSoC5/ADC_SAR_2.c ****     #if((ADC_SAR_2_DEFAULT_REFERENCE == ADC_SAR_2__EXT_REF) || \
 166:.\Generated_Source\PSoC5/ADC_SAR_2.c ****         (ADC_SAR_2_DEFAULT_RANGE == ADC_SAR_2__VNEG_VDDA_DIFF))
 167:.\Generated_Source\PSoC5/ADC_SAR_2.c ****         tmpReg &= (uint8)~ADC_SAR_2_SAR_EN_BUF_VREF_EN;
 168:.\Generated_Source\PSoC5/ADC_SAR_2.c ****     #else /* In INTREF or INTREF Bypassed this buffer is ON */
 169:.\Generated_Source\PSoC5/ADC_SAR_2.c ****         tmpReg |= ADC_SAR_2_SAR_EN_BUF_VREF_EN;
 170:.\Generated_Source\PSoC5/ADC_SAR_2.c ****     #endif /* ADC_SAR_2_DEFAULT_REFERENCE == ADC_SAR_2__EXT_REF */
 171:.\Generated_Source\PSoC5/ADC_SAR_2.c ****     ADC_SAR_2_SAR_CSR3_REG = tmpReg;
 172:.\Generated_Source\PSoC5/ADC_SAR_2.c **** 
 173:.\Generated_Source\PSoC5/ADC_SAR_2.c ****     /* Set reference for ADC */
 174:.\Generated_Source\PSoC5/ADC_SAR_2.c ****     #if(ADC_SAR_2_DEFAULT_RANGE == ADC_SAR_2__VNEG_VDDA_DIFF)
 175:.\Generated_Source\PSoC5/ADC_SAR_2.c ****         #if(ADC_SAR_2_DEFAULT_REFERENCE == ADC_SAR_2__EXT_REF)
 176:.\Generated_Source\PSoC5/ADC_SAR_2.c ****             ADC_SAR_2_SAR_CSR6_REG = ADC_SAR_2_INT_BYPASS_EXT_VREF; /* S2 */
 177:.\Generated_Source\PSoC5/ADC_SAR_2.c ****         #else /* Internal Vdda reference or obsolete bypass mode */
 178:.\Generated_Source\PSoC5/ADC_SAR_2.c ****             ADC_SAR_2_SAR_CSR6_REG = ADC_SAR_2_VDDA_VREF;           /* S7 */
 179:.\Generated_Source\PSoC5/ADC_SAR_2.c ****         #endif /* ADC_SAR_2_DEFAULT_REFERENCE == ADC_SAR_2__EXT_REF */
 180:.\Generated_Source\PSoC5/ADC_SAR_2.c ****     #else  /* Reference goes through internal buffer */
 181:.\Generated_Source\PSoC5/ADC_SAR_2.c ****         #if(ADC_SAR_2_DEFAULT_REFERENCE == ADC_SAR_2__INT_REF_NOT_BYPASSED)
 182:.\Generated_Source\PSoC5/ADC_SAR_2.c ****             ADC_SAR_2_SAR_CSR6_REG = ADC_SAR_2_INT_VREF;            /* S3 + S4 */
 183:.\Generated_Source\PSoC5/ADC_SAR_2.c ****         #else /* INTREF Bypassed of External */
 184:.\Generated_Source\PSoC5/ADC_SAR_2.c ****             ADC_SAR_2_SAR_CSR6_REG = ADC_SAR_2_INT_BYPASS_EXT_VREF; /* S2 */
 185:.\Generated_Source\PSoC5/ADC_SAR_2.c ****         #endif /* ADC_SAR_2_DEFAULT_REFERENCE == ADC_SAR_2__INT_REF_NOT_BYPASSED */
 186:.\Generated_Source\PSoC5/ADC_SAR_2.c ****     #endif /* VNEG_VDDA_DIFF */
 187:.\Generated_Source\PSoC5/ADC_SAR_2.c **** 
 188:.\Generated_Source\PSoC5/ADC_SAR_2.c ****     /* Low non-overlap delay for sampling clock signals (for 1MSPS) */
 189:.\Generated_Source\PSoC5/ADC_SAR_2.c ****     #if(ADC_SAR_2_HIGH_POWER_PULSE == 0u) /* MinPulseWidth <= 50 ns */
 190:.\Generated_Source\PSoC5/ADC_SAR_2.c ****         ADC_SAR_2_SAR_CSR5_REG &= (uint8)~ADC_SAR_2_SAR_DLY_INC;
 191:.\Generated_Source\PSoC5/ADC_SAR_2.c ****     #else /* Set High non-overlap delay for sampling clock signals (for <500KSPS)*/
 192:.\Generated_Source\PSoC5/ADC_SAR_2.c ****         ADC_SAR_2_SAR_CSR5_REG |= ADC_SAR_2_SAR_DLY_INC;
 193:.\Generated_Source\PSoC5/ADC_SAR_2.c ****     #endif /* ADC_SAR_2_HIGH_POWER_PULSE == 0u */
 194:.\Generated_Source\PSoC5/ADC_SAR_2.c **** 
 195:.\Generated_Source\PSoC5/ADC_SAR_2.c ****     /* Increase comparator latch enable delay by 20%, 
 196:.\Generated_Source\PSoC5/ADC_SAR_2.c ****     *  Increase comparator bias current by 30% without impacting delaysDelay 
 197:.\Generated_Source\PSoC5/ADC_SAR_2.c ****     *  Default for 1MSPS) 
 198:.\Generated_Source\PSoC5/ADC_SAR_2.c ****     */
 199:.\Generated_Source\PSoC5/ADC_SAR_2.c ****     #if(ADC_SAR_2_HIGH_POWER_PULSE == 0u)    /* MinPulseWidth <= 50 ns */
 200:.\Generated_Source\PSoC5/ADC_SAR_2.c ****         ADC_SAR_2_SAR_CSR5_REG |= ADC_SAR_2_SAR_SEL_CSEL_DFT_CHAR;
 201:.\Generated_Source\PSoC5/ADC_SAR_2.c ****     #else /* for <500ksps */
 202:.\Generated_Source\PSoC5/ADC_SAR_2.c ****         ADC_SAR_2_SAR_CSR5_REG &= (uint8)~ADC_SAR_2_SAR_SEL_CSEL_DFT_CHAR;
 203:.\Generated_Source\PSoC5/ADC_SAR_2.c ****     #endif /* ADC_SAR_2_HIGH_POWER_PULSE == 0u */
ARM GAS  C:\Users\lilu1\AppData\Local\Temp\ccJDXxzB.s 			page 5


 204:.\Generated_Source\PSoC5/ADC_SAR_2.c **** 
 205:.\Generated_Source\PSoC5/ADC_SAR_2.c ****     /* Set default power and other configurations for control register 0 in multiple lines */
 206:.\Generated_Source\PSoC5/ADC_SAR_2.c ****     ADC_SAR_2_SAR_CSR0_REG = (uint8)((uint8)ADC_SAR_2_DEFAULT_POWER << ADC_SAR_2_SAR_POWER_SHIFT)
 207:.\Generated_Source\PSoC5/ADC_SAR_2.c ****     /* SAR_HIZ_CLEAR:   Should not be used for LP */
 208:.\Generated_Source\PSoC5/ADC_SAR_2.c ****     #if ((CY_PSOC5LP) || (ADC_SAR_2_DEFAULT_REFERENCE != ADC_SAR_2__EXT_REF))
 209:.\Generated_Source\PSoC5/ADC_SAR_2.c ****         | ADC_SAR_2_SAR_HIZ_CLEAR
 210:.\Generated_Source\PSoC5/ADC_SAR_2.c ****     #endif /* SAR_HIZ_CLEAR */
 211:.\Generated_Source\PSoC5/ADC_SAR_2.c ****     /*Set Convertion mode */
 212:.\Generated_Source\PSoC5/ADC_SAR_2.c ****     #if(ADC_SAR_2_DEFAULT_CONV_MODE != ADC_SAR_2__FREE_RUNNING)      /* If triggered mode */
 213:.\Generated_Source\PSoC5/ADC_SAR_2.c ****         | ADC_SAR_2_SAR_MX_SOF_UDB           /* source: UDB */
 214:.\Generated_Source\PSoC5/ADC_SAR_2.c ****         | ADC_SAR_2_SAR_SOF_MODE_EDGE        /* Set edge-sensitive sof source */
 215:.\Generated_Source\PSoC5/ADC_SAR_2.c ****     #endif /* ADC_SAR_2_DEFAULT_CONV_MODE */
 216:.\Generated_Source\PSoC5/ADC_SAR_2.c ****     ; /* end of multiple line initialization */
 217:.\Generated_Source\PSoC5/ADC_SAR_2.c **** 
 218:.\Generated_Source\PSoC5/ADC_SAR_2.c ****     ADC_SAR_2_SAR_TR0_REG = ADC_SAR_2_SAR_CAP_TRIM_2;
 219:.\Generated_Source\PSoC5/ADC_SAR_2.c **** 
 220:.\Generated_Source\PSoC5/ADC_SAR_2.c ****     /* Enable clock for SAR ADC*/
 221:.\Generated_Source\PSoC5/ADC_SAR_2.c ****     ADC_SAR_2_SAR_CLK_REG |= ADC_SAR_2_SAR_MX_CLK_EN;
 222:.\Generated_Source\PSoC5/ADC_SAR_2.c **** 
 223:.\Generated_Source\PSoC5/ADC_SAR_2.c ****     CyDelayUs(10u); /* The block is ready to use 10 us after the enable signal is set high. */
 224:.\Generated_Source\PSoC5/ADC_SAR_2.c **** 
 225:.\Generated_Source\PSoC5/ADC_SAR_2.c ****     #if(ADC_SAR_2_IRQ_REMOVE == 0u)
 226:.\Generated_Source\PSoC5/ADC_SAR_2.c ****         /* Clear a pending interrupt */
 227:.\Generated_Source\PSoC5/ADC_SAR_2.c ****         CyIntClearPending(ADC_SAR_2_INTC_NUMBER);
 228:.\Generated_Source\PSoC5/ADC_SAR_2.c ****     #endif   /* End ADC_SAR_2_IRQ_REMOVE */
 229:.\Generated_Source\PSoC5/ADC_SAR_2.c **** 
 230:.\Generated_Source\PSoC5/ADC_SAR_2.c ****     CyExitCriticalSection(enableInterrupts);
 231:.\Generated_Source\PSoC5/ADC_SAR_2.c **** }
 232:.\Generated_Source\PSoC5/ADC_SAR_2.c **** 
 233:.\Generated_Source\PSoC5/ADC_SAR_2.c **** 
 234:.\Generated_Source\PSoC5/ADC_SAR_2.c **** /*******************************************************************************
 235:.\Generated_Source\PSoC5/ADC_SAR_2.c **** * Function Name: ADC_SAR_2_Stop
 236:.\Generated_Source\PSoC5/ADC_SAR_2.c **** ********************************************************************************
 237:.\Generated_Source\PSoC5/ADC_SAR_2.c **** *
 238:.\Generated_Source\PSoC5/ADC_SAR_2.c **** * Summary:
 239:.\Generated_Source\PSoC5/ADC_SAR_2.c **** *  Stops ADC conversions and puts the ADC into its lowest power mode.
 240:.\Generated_Source\PSoC5/ADC_SAR_2.c **** *
 241:.\Generated_Source\PSoC5/ADC_SAR_2.c **** * Parameters:
 242:.\Generated_Source\PSoC5/ADC_SAR_2.c **** *  None.
 243:.\Generated_Source\PSoC5/ADC_SAR_2.c **** *
 244:.\Generated_Source\PSoC5/ADC_SAR_2.c **** * Return:
 245:.\Generated_Source\PSoC5/ADC_SAR_2.c **** *  None.
 246:.\Generated_Source\PSoC5/ADC_SAR_2.c **** *
 247:.\Generated_Source\PSoC5/ADC_SAR_2.c **** *******************************************************************************/
 248:.\Generated_Source\PSoC5/ADC_SAR_2.c **** void ADC_SAR_2_Stop(void)
 249:.\Generated_Source\PSoC5/ADC_SAR_2.c **** {
 250:.\Generated_Source\PSoC5/ADC_SAR_2.c ****     uint8 enableInterrupts;
 251:.\Generated_Source\PSoC5/ADC_SAR_2.c ****     enableInterrupts = CyEnterCriticalSection();
 252:.\Generated_Source\PSoC5/ADC_SAR_2.c **** 
 253:.\Generated_Source\PSoC5/ADC_SAR_2.c ****     /* Stop all conversions */
 254:.\Generated_Source\PSoC5/ADC_SAR_2.c ****     ADC_SAR_2_SAR_CSR0_REG &= (uint8)~ADC_SAR_2_SAR_SOF_START_CONV;
 255:.\Generated_Source\PSoC5/ADC_SAR_2.c ****     /* Disable the SAR ADC block in Active Power Mode */
 256:.\Generated_Source\PSoC5/ADC_SAR_2.c ****     ADC_SAR_2_PWRMGR_SAR_REG &= (uint8)~ADC_SAR_2_ACT_PWR_SAR_EN;
 257:.\Generated_Source\PSoC5/ADC_SAR_2.c ****     /* Disable the SAR ADC in Standby Power Mode */
 258:.\Generated_Source\PSoC5/ADC_SAR_2.c ****     ADC_SAR_2_STBY_PWRMGR_SAR_REG &= (uint8)~ADC_SAR_2_STBY_PWR_SAR_EN;
 259:.\Generated_Source\PSoC5/ADC_SAR_2.c **** 
 260:.\Generated_Source\PSoC5/ADC_SAR_2.c ****     /* This is only valid if there is an internal clock */
ARM GAS  C:\Users\lilu1\AppData\Local\Temp\ccJDXxzB.s 			page 6


 261:.\Generated_Source\PSoC5/ADC_SAR_2.c ****     #if(ADC_SAR_2_DEFAULT_INTERNAL_CLK)
 262:.\Generated_Source\PSoC5/ADC_SAR_2.c ****         ADC_SAR_2_PWRMGR_CLK_REG &= (uint8)~ADC_SAR_2_ACT_PWR_CLK_EN;
 263:.\Generated_Source\PSoC5/ADC_SAR_2.c ****         ADC_SAR_2_STBY_PWRMGR_CLK_REG &= (uint8)~ADC_SAR_2_STBY_PWR_CLK_EN;
 264:.\Generated_Source\PSoC5/ADC_SAR_2.c ****     #endif /* End ADC_SAR_2_DEFAULT_INTERNAL_CLK */
 265:.\Generated_Source\PSoC5/ADC_SAR_2.c **** 
 266:.\Generated_Source\PSoC5/ADC_SAR_2.c ****     CyExitCriticalSection(enableInterrupts);
 267:.\Generated_Source\PSoC5/ADC_SAR_2.c **** 
 268:.\Generated_Source\PSoC5/ADC_SAR_2.c **** }
 269:.\Generated_Source\PSoC5/ADC_SAR_2.c **** 
 270:.\Generated_Source\PSoC5/ADC_SAR_2.c **** 
 271:.\Generated_Source\PSoC5/ADC_SAR_2.c **** /*******************************************************************************
 272:.\Generated_Source\PSoC5/ADC_SAR_2.c **** * Function Name: ADC_SAR_2_SetPower
 273:.\Generated_Source\PSoC5/ADC_SAR_2.c **** ********************************************************************************
 274:.\Generated_Source\PSoC5/ADC_SAR_2.c **** *
 275:.\Generated_Source\PSoC5/ADC_SAR_2.c **** * Summary:
 276:.\Generated_Source\PSoC5/ADC_SAR_2.c **** *  Sets the operational power of the ADC. You should use the higher power
 277:.\Generated_Source\PSoC5/ADC_SAR_2.c **** *  settings with faster clock speeds.
 278:.\Generated_Source\PSoC5/ADC_SAR_2.c **** *
 279:.\Generated_Source\PSoC5/ADC_SAR_2.c **** * Parameters:
 280:.\Generated_Source\PSoC5/ADC_SAR_2.c **** *  power:  Power setting for ADC
 281:.\Generated_Source\PSoC5/ADC_SAR_2.c **** *  0 ->    Normal
 282:.\Generated_Source\PSoC5/ADC_SAR_2.c **** *  1 ->    Medium power
 283:.\Generated_Source\PSoC5/ADC_SAR_2.c **** *  2 ->    1.25 power
 284:.\Generated_Source\PSoC5/ADC_SAR_2.c **** *  3 ->    Minimum power.
 285:.\Generated_Source\PSoC5/ADC_SAR_2.c **** *
 286:.\Generated_Source\PSoC5/ADC_SAR_2.c **** * Return:
 287:.\Generated_Source\PSoC5/ADC_SAR_2.c **** *  None.
 288:.\Generated_Source\PSoC5/ADC_SAR_2.c **** *
 289:.\Generated_Source\PSoC5/ADC_SAR_2.c **** *******************************************************************************/
 290:.\Generated_Source\PSoC5/ADC_SAR_2.c **** void ADC_SAR_2_SetPower(uint8 power)
 291:.\Generated_Source\PSoC5/ADC_SAR_2.c **** {
 292:.\Generated_Source\PSoC5/ADC_SAR_2.c ****     uint8 tmpReg;
 293:.\Generated_Source\PSoC5/ADC_SAR_2.c **** 
 294:.\Generated_Source\PSoC5/ADC_SAR_2.c ****     /* mask off invalid power settings */
 295:.\Generated_Source\PSoC5/ADC_SAR_2.c ****     power &= ADC_SAR_2_SAR_API_POWER_MASK;
 296:.\Generated_Source\PSoC5/ADC_SAR_2.c **** 
 297:.\Generated_Source\PSoC5/ADC_SAR_2.c ****     /* Set Power parameter  */
 298:.\Generated_Source\PSoC5/ADC_SAR_2.c ****     tmpReg = ADC_SAR_2_SAR_CSR0_REG & (uint8)~ADC_SAR_2_SAR_POWER_MASK;
 299:.\Generated_Source\PSoC5/ADC_SAR_2.c ****     tmpReg |= (uint8)(power << ADC_SAR_2_SAR_POWER_SHIFT);
 300:.\Generated_Source\PSoC5/ADC_SAR_2.c ****     ADC_SAR_2_SAR_CSR0_REG = tmpReg;
 301:.\Generated_Source\PSoC5/ADC_SAR_2.c **** }
 302:.\Generated_Source\PSoC5/ADC_SAR_2.c **** 
 303:.\Generated_Source\PSoC5/ADC_SAR_2.c **** 
 304:.\Generated_Source\PSoC5/ADC_SAR_2.c **** /*******************************************************************************
 305:.\Generated_Source\PSoC5/ADC_SAR_2.c **** * Function Name: ADC_SAR_2_SetResolution
 306:.\Generated_Source\PSoC5/ADC_SAR_2.c **** ********************************************************************************
 307:.\Generated_Source\PSoC5/ADC_SAR_2.c **** *
 308:.\Generated_Source\PSoC5/ADC_SAR_2.c **** * Summary:
 309:.\Generated_Source\PSoC5/ADC_SAR_2.c **** *  Sets the Relution of the SAR.
 310:.\Generated_Source\PSoC5/ADC_SAR_2.c **** *
 311:.\Generated_Source\PSoC5/ADC_SAR_2.c **** * Parameters:
 312:.\Generated_Source\PSoC5/ADC_SAR_2.c **** *  resolution:
 313:.\Generated_Source\PSoC5/ADC_SAR_2.c **** *  12 ->    RES12
 314:.\Generated_Source\PSoC5/ADC_SAR_2.c **** *  10 ->    RES10
 315:.\Generated_Source\PSoC5/ADC_SAR_2.c **** *  8  ->    RES8
 316:.\Generated_Source\PSoC5/ADC_SAR_2.c **** *
 317:.\Generated_Source\PSoC5/ADC_SAR_2.c **** * Return:
ARM GAS  C:\Users\lilu1\AppData\Local\Temp\ccJDXxzB.s 			page 7


 318:.\Generated_Source\PSoC5/ADC_SAR_2.c **** *  None.
 319:.\Generated_Source\PSoC5/ADC_SAR_2.c **** *
 320:.\Generated_Source\PSoC5/ADC_SAR_2.c **** * Side Effects:
 321:.\Generated_Source\PSoC5/ADC_SAR_2.c **** *  The ADC resolution cannot be changed during a conversion cycle. The
 322:.\Generated_Source\PSoC5/ADC_SAR_2.c **** *  recommended best practice is to stop conversions with
 323:.\Generated_Source\PSoC5/ADC_SAR_2.c **** *  ADC_StopConvert(), change the resolution, then restart the
 324:.\Generated_Source\PSoC5/ADC_SAR_2.c **** *  conversions with ADC_StartConvert().
 325:.\Generated_Source\PSoC5/ADC_SAR_2.c **** *  If you decide not to stop conversions before calling this API, you
 326:.\Generated_Source\PSoC5/ADC_SAR_2.c **** *  should use ADC_IsEndConversion() to wait until conversion is complete
 327:.\Generated_Source\PSoC5/ADC_SAR_2.c **** *  before changing the resolution.
 328:.\Generated_Source\PSoC5/ADC_SAR_2.c **** *  If you call ADC_SetResolution() during a conversion, the resolution will
 329:.\Generated_Source\PSoC5/ADC_SAR_2.c **** *  not be changed until the current conversion is complete. Data will not be
 330:.\Generated_Source\PSoC5/ADC_SAR_2.c **** *  available in the new resolution for another 6 + "New Resolution(in bits)"
 331:.\Generated_Source\PSoC5/ADC_SAR_2.c **** *  clock cycles.
 332:.\Generated_Source\PSoC5/ADC_SAR_2.c **** *  You may need add a delay of this number of clock cycles after
 333:.\Generated_Source\PSoC5/ADC_SAR_2.c **** *  ADC_SetResolution() is called before data is valid again.
 334:.\Generated_Source\PSoC5/ADC_SAR_2.c **** *  Affects ADC_CountsTo_Volts(), ADC_CountsTo_mVolts(), and
 335:.\Generated_Source\PSoC5/ADC_SAR_2.c **** *  ADC_CountsTo_uVolts() by calculating the correct conversion between ADC
 336:.\Generated_Source\PSoC5/ADC_SAR_2.c **** *  counts and the applied input voltage. Calculation depends on resolution,
 337:.\Generated_Source\PSoC5/ADC_SAR_2.c **** *  input range, and voltage reference.
 338:.\Generated_Source\PSoC5/ADC_SAR_2.c **** *
 339:.\Generated_Source\PSoC5/ADC_SAR_2.c **** *******************************************************************************/
 340:.\Generated_Source\PSoC5/ADC_SAR_2.c **** void ADC_SAR_2_SetResolution(uint8 resolution)
 341:.\Generated_Source\PSoC5/ADC_SAR_2.c **** {
 342:.\Generated_Source\PSoC5/ADC_SAR_2.c ****     uint8 tmpReg;
 343:.\Generated_Source\PSoC5/ADC_SAR_2.c **** 
 344:.\Generated_Source\PSoC5/ADC_SAR_2.c ****     /* Set SAR ADC resolution and sample width: 18 conversion cycles at 12bits + 1 gap */
 345:.\Generated_Source\PSoC5/ADC_SAR_2.c ****     switch (resolution)
 346:.\Generated_Source\PSoC5/ADC_SAR_2.c ****     {
 347:.\Generated_Source\PSoC5/ADC_SAR_2.c ****         case (uint8)ADC_SAR_2__BITS_12:
 348:.\Generated_Source\PSoC5/ADC_SAR_2.c ****             tmpReg = ADC_SAR_2_SAR_RESOLUTION_12BIT | ADC_SAR_2_SAR_SAMPLE_WIDTH;
 349:.\Generated_Source\PSoC5/ADC_SAR_2.c ****             break;
 350:.\Generated_Source\PSoC5/ADC_SAR_2.c ****         case (uint8)ADC_SAR_2__BITS_10:
 351:.\Generated_Source\PSoC5/ADC_SAR_2.c ****             tmpReg = ADC_SAR_2_SAR_RESOLUTION_10BIT | ADC_SAR_2_SAR_SAMPLE_WIDTH;
 352:.\Generated_Source\PSoC5/ADC_SAR_2.c ****             break;
 353:.\Generated_Source\PSoC5/ADC_SAR_2.c ****         case (uint8)ADC_SAR_2__BITS_8:
 354:.\Generated_Source\PSoC5/ADC_SAR_2.c ****             tmpReg = ADC_SAR_2_SAR_RESOLUTION_8BIT | ADC_SAR_2_SAR_SAMPLE_WIDTH;
 355:.\Generated_Source\PSoC5/ADC_SAR_2.c ****             break;
 356:.\Generated_Source\PSoC5/ADC_SAR_2.c ****         default:
 357:.\Generated_Source\PSoC5/ADC_SAR_2.c ****             tmpReg = ADC_SAR_2_SAR_RESOLUTION_12BIT | ADC_SAR_2_SAR_SAMPLE_WIDTH;
 358:.\Generated_Source\PSoC5/ADC_SAR_2.c ****             /* Halt CPU in debug mode if resolution is out of valid range */
 359:.\Generated_Source\PSoC5/ADC_SAR_2.c ****             CYASSERT(0u != 0u);
 360:.\Generated_Source\PSoC5/ADC_SAR_2.c ****             break;
 361:.\Generated_Source\PSoC5/ADC_SAR_2.c ****     }
 362:.\Generated_Source\PSoC5/ADC_SAR_2.c ****     ADC_SAR_2_SAR_CSR2_REG = tmpReg;
 363:.\Generated_Source\PSoC5/ADC_SAR_2.c **** 
 364:.\Generated_Source\PSoC5/ADC_SAR_2.c ****      /* Calculate gain for convert counts to volts */
 365:.\Generated_Source\PSoC5/ADC_SAR_2.c ****     ADC_SAR_2_CalcGain(resolution);
 366:.\Generated_Source\PSoC5/ADC_SAR_2.c **** }
 367:.\Generated_Source\PSoC5/ADC_SAR_2.c **** 
 368:.\Generated_Source\PSoC5/ADC_SAR_2.c **** 
 369:.\Generated_Source\PSoC5/ADC_SAR_2.c **** #if(ADC_SAR_2_DEFAULT_CONV_MODE != ADC_SAR_2__HARDWARE_TRIGGER)
 370:.\Generated_Source\PSoC5/ADC_SAR_2.c **** 
 371:.\Generated_Source\PSoC5/ADC_SAR_2.c **** 
 372:.\Generated_Source\PSoC5/ADC_SAR_2.c ****     /*******************************************************************************
 373:.\Generated_Source\PSoC5/ADC_SAR_2.c ****     * Function Name: ADC_SAR_2_StartConvert
 374:.\Generated_Source\PSoC5/ADC_SAR_2.c ****     ********************************************************************************
ARM GAS  C:\Users\lilu1\AppData\Local\Temp\ccJDXxzB.s 			page 8


 375:.\Generated_Source\PSoC5/ADC_SAR_2.c ****     *
 376:.\Generated_Source\PSoC5/ADC_SAR_2.c ****     * Summary:
 377:.\Generated_Source\PSoC5/ADC_SAR_2.c ****     *  Forces the ADC to initiate a conversion. In free-running mode, the ADC runs
 378:.\Generated_Source\PSoC5/ADC_SAR_2.c ****     *  continuously. In software trigger mode, the function also acts as a software
 379:.\Generated_Source\PSoC5/ADC_SAR_2.c ****     *  version of the SOC and every conversion must be triggered by
 380:.\Generated_Source\PSoC5/ADC_SAR_2.c ****     *  ADC_SAR_2_StartConvert(). This function is not available when the
 381:.\Generated_Source\PSoC5/ADC_SAR_2.c ****     *  Hardware Trigger sample mode is selected.
 382:.\Generated_Source\PSoC5/ADC_SAR_2.c ****     *
 383:.\Generated_Source\PSoC5/ADC_SAR_2.c ****     * Parameters:
 384:.\Generated_Source\PSoC5/ADC_SAR_2.c ****     *  None.
 385:.\Generated_Source\PSoC5/ADC_SAR_2.c ****     *
 386:.\Generated_Source\PSoC5/ADC_SAR_2.c ****     * Return:
 387:.\Generated_Source\PSoC5/ADC_SAR_2.c ****     *  None.
 388:.\Generated_Source\PSoC5/ADC_SAR_2.c ****     *
 389:.\Generated_Source\PSoC5/ADC_SAR_2.c ****     * Theory:
 390:.\Generated_Source\PSoC5/ADC_SAR_2.c ****     *  Forces the ADC to initiate a conversion. In Free Running mode, the ADC will
 391:.\Generated_Source\PSoC5/ADC_SAR_2.c ****     *  run continuously. In a software trigger mode the function also acts as a
 392:.\Generated_Source\PSoC5/ADC_SAR_2.c ****     *  software version of the SOC. Here every conversion has to be triggered by
 393:.\Generated_Source\PSoC5/ADC_SAR_2.c ****     *  the routine. This writes into the SOC bit in SAR_CTRL reg.
 394:.\Generated_Source\PSoC5/ADC_SAR_2.c ****     *
 395:.\Generated_Source\PSoC5/ADC_SAR_2.c ****     * Side Effects:
 396:.\Generated_Source\PSoC5/ADC_SAR_2.c ****     *  In a software trigger mode the function switches source for SOF from the
 397:.\Generated_Source\PSoC5/ADC_SAR_2.c ****     *  external pin to the internal SOF generation. Application should not call
 398:.\Generated_Source\PSoC5/ADC_SAR_2.c ****     *  StartConvert if external source used for SOF.
 399:.\Generated_Source\PSoC5/ADC_SAR_2.c ****     *
 400:.\Generated_Source\PSoC5/ADC_SAR_2.c ****     *******************************************************************************/
 401:.\Generated_Source\PSoC5/ADC_SAR_2.c ****     void ADC_SAR_2_StartConvert(void)
 402:.\Generated_Source\PSoC5/ADC_SAR_2.c ****     {
 403:.\Generated_Source\PSoC5/ADC_SAR_2.c ****         #if(ADC_SAR_2_DEFAULT_CONV_MODE != ADC_SAR_2__FREE_RUNNING)  /* If software triggered mode 
 404:.\Generated_Source\PSoC5/ADC_SAR_2.c ****             ADC_SAR_2_SAR_CSR0_REG &= (uint8)~ADC_SAR_2_SAR_MX_SOF_UDB;   /* source: SOF bit */
 405:.\Generated_Source\PSoC5/ADC_SAR_2.c ****         #endif /* End ADC_SAR_2_DEFAULT_CONV_MODE */
 406:.\Generated_Source\PSoC5/ADC_SAR_2.c **** 
 407:.\Generated_Source\PSoC5/ADC_SAR_2.c ****         /* Start the conversion */
 408:.\Generated_Source\PSoC5/ADC_SAR_2.c ****         ADC_SAR_2_SAR_CSR0_REG |= ADC_SAR_2_SAR_SOF_START_CONV;
 409:.\Generated_Source\PSoC5/ADC_SAR_2.c ****     }
 410:.\Generated_Source\PSoC5/ADC_SAR_2.c **** 
 411:.\Generated_Source\PSoC5/ADC_SAR_2.c **** 
 412:.\Generated_Source\PSoC5/ADC_SAR_2.c ****     /*******************************************************************************
 413:.\Generated_Source\PSoC5/ADC_SAR_2.c ****     * Function Name: ADC_SAR_2_StopConvert
 414:.\Generated_Source\PSoC5/ADC_SAR_2.c ****     ********************************************************************************
 415:.\Generated_Source\PSoC5/ADC_SAR_2.c ****     *
 416:.\Generated_Source\PSoC5/ADC_SAR_2.c ****     * Summary:
 417:.\Generated_Source\PSoC5/ADC_SAR_2.c ****     *  Forces the ADC to stop conversions. If a conversion is currently executing,
 418:.\Generated_Source\PSoC5/ADC_SAR_2.c ****     *  that conversion will complete, but no further conversions will occur. This
 419:.\Generated_Source\PSoC5/ADC_SAR_2.c ****     *  function is not available when the Hardware Trigger sample mode is selected.
 420:.\Generated_Source\PSoC5/ADC_SAR_2.c ****     *
 421:.\Generated_Source\PSoC5/ADC_SAR_2.c ****     * Parameters:
 422:.\Generated_Source\PSoC5/ADC_SAR_2.c ****     *  None.
 423:.\Generated_Source\PSoC5/ADC_SAR_2.c ****     *
 424:.\Generated_Source\PSoC5/ADC_SAR_2.c ****     * Return:
 425:.\Generated_Source\PSoC5/ADC_SAR_2.c ****     *  None.
 426:.\Generated_Source\PSoC5/ADC_SAR_2.c ****     *
 427:.\Generated_Source\PSoC5/ADC_SAR_2.c ****     * Theory:
 428:.\Generated_Source\PSoC5/ADC_SAR_2.c ****     *  Stops ADC conversion in Free Running mode.
 429:.\Generated_Source\PSoC5/ADC_SAR_2.c ****     *
 430:.\Generated_Source\PSoC5/ADC_SAR_2.c ****     * Side Effects:
 431:.\Generated_Source\PSoC5/ADC_SAR_2.c ****     *  In Software Trigger sample mode, this function sets a software version of the
ARM GAS  C:\Users\lilu1\AppData\Local\Temp\ccJDXxzB.s 			page 9


 432:.\Generated_Source\PSoC5/ADC_SAR_2.c ****     *  SOC to low level and switches the SOC source to hardware SOC input.
 433:.\Generated_Source\PSoC5/ADC_SAR_2.c ****     *
 434:.\Generated_Source\PSoC5/ADC_SAR_2.c ****     *******************************************************************************/
 435:.\Generated_Source\PSoC5/ADC_SAR_2.c ****     void ADC_SAR_2_StopConvert(void)
 436:.\Generated_Source\PSoC5/ADC_SAR_2.c ****     {
 437:.\Generated_Source\PSoC5/ADC_SAR_2.c ****         /* Stop all conversions */
 438:.\Generated_Source\PSoC5/ADC_SAR_2.c ****         ADC_SAR_2_SAR_CSR0_REG &= (uint8)~ADC_SAR_2_SAR_SOF_START_CONV;
 439:.\Generated_Source\PSoC5/ADC_SAR_2.c **** 
 440:.\Generated_Source\PSoC5/ADC_SAR_2.c ****         #if(ADC_SAR_2_DEFAULT_CONV_MODE != ADC_SAR_2__FREE_RUNNING)  /* If software triggered mode 
 441:.\Generated_Source\PSoC5/ADC_SAR_2.c ****             /* Return source to UDB for hardware SOF signal */
 442:.\Generated_Source\PSoC5/ADC_SAR_2.c ****             ADC_SAR_2_SAR_CSR0_REG |= ADC_SAR_2_SAR_MX_SOF_UDB;    /* source: UDB */
 443:.\Generated_Source\PSoC5/ADC_SAR_2.c ****         #endif /* End ADC_SAR_2_DEFAULT_CONV_MODE */
 444:.\Generated_Source\PSoC5/ADC_SAR_2.c **** 
 445:.\Generated_Source\PSoC5/ADC_SAR_2.c ****     }
 446:.\Generated_Source\PSoC5/ADC_SAR_2.c **** 
 447:.\Generated_Source\PSoC5/ADC_SAR_2.c **** #endif /* End ADC_SAR_2_DEFAULT_CONV_MODE != ADC_SAR_2__HARDWARE_TRIGGER */
 448:.\Generated_Source\PSoC5/ADC_SAR_2.c **** 
 449:.\Generated_Source\PSoC5/ADC_SAR_2.c **** 
 450:.\Generated_Source\PSoC5/ADC_SAR_2.c **** /*******************************************************************************
 451:.\Generated_Source\PSoC5/ADC_SAR_2.c **** * Function Name: ADC_SAR_2_IsEndConversion
 452:.\Generated_Source\PSoC5/ADC_SAR_2.c **** ********************************************************************************
 453:.\Generated_Source\PSoC5/ADC_SAR_2.c **** *
 454:.\Generated_Source\PSoC5/ADC_SAR_2.c **** * Summary:
 455:.\Generated_Source\PSoC5/ADC_SAR_2.c **** *  Immediately returns the status of the conversion or does not return
 456:.\Generated_Source\PSoC5/ADC_SAR_2.c **** *  (blocking) until the conversion completes, depending on the retMode
 457:.\Generated_Source\PSoC5/ADC_SAR_2.c **** *  parameter.
 458:.\Generated_Source\PSoC5/ADC_SAR_2.c **** *
 459:.\Generated_Source\PSoC5/ADC_SAR_2.c **** * Parameters:
 460:.\Generated_Source\PSoC5/ADC_SAR_2.c **** *  retMode:  Check conversion return mode.
 461:.\Generated_Source\PSoC5/ADC_SAR_2.c **** *   ADC_SAR_2_RETURN_STATUS: Immediately returns the status. If the
 462:.\Generated_Source\PSoC5/ADC_SAR_2.c **** *     value returned is zero, the conversion is not complete, and this function
 463:.\Generated_Source\PSoC5/ADC_SAR_2.c **** *     should be retried until a nonzero result is returned.
 464:.\Generated_Source\PSoC5/ADC_SAR_2.c **** *   ADC_SAR_2_WAIT_FOR_RESULT: Does not return a result until the ADC
 465:.\Generated_Source\PSoC5/ADC_SAR_2.c **** *     conversion is complete.
 466:.\Generated_Source\PSoC5/ADC_SAR_2.c **** *
 467:.\Generated_Source\PSoC5/ADC_SAR_2.c **** * Return:
 468:.\Generated_Source\PSoC5/ADC_SAR_2.c **** *  (uint8)  0 =>  The ADC is still calculating the last result.
 469:.\Generated_Source\PSoC5/ADC_SAR_2.c **** *           1 =>  The last conversion is complete.
 470:.\Generated_Source\PSoC5/ADC_SAR_2.c **** *
 471:.\Generated_Source\PSoC5/ADC_SAR_2.c **** * Side Effects:
 472:.\Generated_Source\PSoC5/ADC_SAR_2.c **** *  This function reads the end of conversion status, which is cleared on read.
 473:.\Generated_Source\PSoC5/ADC_SAR_2.c **** *
 474:.\Generated_Source\PSoC5/ADC_SAR_2.c **** *******************************************************************************/
 475:.\Generated_Source\PSoC5/ADC_SAR_2.c **** uint8 ADC_SAR_2_IsEndConversion(uint8 retMode)
 476:.\Generated_Source\PSoC5/ADC_SAR_2.c **** {
 477:.\Generated_Source\PSoC5/ADC_SAR_2.c ****     uint8 status;
 478:.\Generated_Source\PSoC5/ADC_SAR_2.c **** 
 479:.\Generated_Source\PSoC5/ADC_SAR_2.c ****     do
 480:.\Generated_Source\PSoC5/ADC_SAR_2.c ****     {
 481:.\Generated_Source\PSoC5/ADC_SAR_2.c ****         status = ADC_SAR_2_SAR_CSR1_REG & ADC_SAR_2_SAR_EOF_1;
 482:.\Generated_Source\PSoC5/ADC_SAR_2.c ****     } while ((status != ADC_SAR_2_SAR_EOF_1) && (retMode == ADC_SAR_2_WAIT_FOR_RESULT));
 483:.\Generated_Source\PSoC5/ADC_SAR_2.c ****     /* If convertion complete, wait until EOF bit released */
 484:.\Generated_Source\PSoC5/ADC_SAR_2.c ****     if(status == ADC_SAR_2_SAR_EOF_1)
 485:.\Generated_Source\PSoC5/ADC_SAR_2.c ****     {
 486:.\Generated_Source\PSoC5/ADC_SAR_2.c ****         /* wait one ADC clock to let the EOC status bit release */
 487:.\Generated_Source\PSoC5/ADC_SAR_2.c ****         CyDelayUs(1u);
 488:.\Generated_Source\PSoC5/ADC_SAR_2.c ****         /* Do the unconditional read operation of the CSR1 register to make sure the EOC bit has be
ARM GAS  C:\Users\lilu1\AppData\Local\Temp\ccJDXxzB.s 			page 10


 489:.\Generated_Source\PSoC5/ADC_SAR_2.c ****         CY_GET_REG8(ADC_SAR_2_SAR_CSR1_PTR);
 490:.\Generated_Source\PSoC5/ADC_SAR_2.c ****     }
 491:.\Generated_Source\PSoC5/ADC_SAR_2.c **** 
 492:.\Generated_Source\PSoC5/ADC_SAR_2.c ****     return(status);
 493:.\Generated_Source\PSoC5/ADC_SAR_2.c **** }
 494:.\Generated_Source\PSoC5/ADC_SAR_2.c **** 
 495:.\Generated_Source\PSoC5/ADC_SAR_2.c **** 
 496:.\Generated_Source\PSoC5/ADC_SAR_2.c **** /*******************************************************************************
 497:.\Generated_Source\PSoC5/ADC_SAR_2.c **** * Function Name: ADC_SAR_2_GetResult8
 498:.\Generated_Source\PSoC5/ADC_SAR_2.c **** ********************************************************************************
 499:.\Generated_Source\PSoC5/ADC_SAR_2.c **** *
 500:.\Generated_Source\PSoC5/ADC_SAR_2.c **** * Summary:
 501:.\Generated_Source\PSoC5/ADC_SAR_2.c **** *  Returns the result of an 8-bit conversion. If the resolution is set greater
 502:.\Generated_Source\PSoC5/ADC_SAR_2.c **** *  than 8 bits, the function returns the LSB of the result.
 503:.\Generated_Source\PSoC5/ADC_SAR_2.c **** *  ADC_SAR_2_IsEndConversion() should be called to verify that the data
 504:.\Generated_Source\PSoC5/ADC_SAR_2.c **** *   sample is ready.
 505:.\Generated_Source\PSoC5/ADC_SAR_2.c **** *
 506:.\Generated_Source\PSoC5/ADC_SAR_2.c **** * Parameters:
 507:.\Generated_Source\PSoC5/ADC_SAR_2.c **** *  None.
 508:.\Generated_Source\PSoC5/ADC_SAR_2.c **** *
 509:.\Generated_Source\PSoC5/ADC_SAR_2.c **** * Return:
 510:.\Generated_Source\PSoC5/ADC_SAR_2.c **** *  The LSB of the last ADC conversion.
 511:.\Generated_Source\PSoC5/ADC_SAR_2.c **** *
 512:.\Generated_Source\PSoC5/ADC_SAR_2.c **** * Global Variables:
 513:.\Generated_Source\PSoC5/ADC_SAR_2.c **** *  ADC_SAR_2_shift - used to convert the ADC counts to the 2s
 514:.\Generated_Source\PSoC5/ADC_SAR_2.c **** *  compliment form.
 515:.\Generated_Source\PSoC5/ADC_SAR_2.c **** *
 516:.\Generated_Source\PSoC5/ADC_SAR_2.c **** * Side Effects:
 517:.\Generated_Source\PSoC5/ADC_SAR_2.c **** *  Converts the ADC counts to the 2s complement form.
 518:.\Generated_Source\PSoC5/ADC_SAR_2.c **** *
 519:.\Generated_Source\PSoC5/ADC_SAR_2.c **** *******************************************************************************/
 520:.\Generated_Source\PSoC5/ADC_SAR_2.c **** int8 ADC_SAR_2_GetResult8( void )
 521:.\Generated_Source\PSoC5/ADC_SAR_2.c **** {
 522:.\Generated_Source\PSoC5/ADC_SAR_2.c ****     return( (int8)ADC_SAR_2_SAR_WRK0_REG - (int8)ADC_SAR_2_shift);
 523:.\Generated_Source\PSoC5/ADC_SAR_2.c **** }
 524:.\Generated_Source\PSoC5/ADC_SAR_2.c **** 
 525:.\Generated_Source\PSoC5/ADC_SAR_2.c **** 
 526:.\Generated_Source\PSoC5/ADC_SAR_2.c **** /*******************************************************************************
 527:.\Generated_Source\PSoC5/ADC_SAR_2.c **** * Function Name: ADC_SAR_2_GetResult16
 528:.\Generated_Source\PSoC5/ADC_SAR_2.c **** ********************************************************************************
 529:.\Generated_Source\PSoC5/ADC_SAR_2.c **** *
 530:.\Generated_Source\PSoC5/ADC_SAR_2.c **** * Summary:
 531:.\Generated_Source\PSoC5/ADC_SAR_2.c **** *  Returns a 16-bit result for a conversion with a result that has a resolution
 532:.\Generated_Source\PSoC5/ADC_SAR_2.c **** *  of 8 to 12 bits.
 533:.\Generated_Source\PSoC5/ADC_SAR_2.c **** *  ADC_SAR_2_IsEndConversion() should be called to verify that the data
 534:.\Generated_Source\PSoC5/ADC_SAR_2.c **** *   sample is ready
 535:.\Generated_Source\PSoC5/ADC_SAR_2.c **** *
 536:.\Generated_Source\PSoC5/ADC_SAR_2.c **** * Parameters:
 537:.\Generated_Source\PSoC5/ADC_SAR_2.c **** *  None.
 538:.\Generated_Source\PSoC5/ADC_SAR_2.c **** *
 539:.\Generated_Source\PSoC5/ADC_SAR_2.c **** * Return:
 540:.\Generated_Source\PSoC5/ADC_SAR_2.c **** *  The 16-bit result of the last ADC conversion
 541:.\Generated_Source\PSoC5/ADC_SAR_2.c **** *
 542:.\Generated_Source\PSoC5/ADC_SAR_2.c **** * Global Variables:
 543:.\Generated_Source\PSoC5/ADC_SAR_2.c **** *  ADC_SAR_2_shift - used to convert the ADC counts to the 2s
 544:.\Generated_Source\PSoC5/ADC_SAR_2.c **** *  compliment form.
 545:.\Generated_Source\PSoC5/ADC_SAR_2.c **** *
ARM GAS  C:\Users\lilu1\AppData\Local\Temp\ccJDXxzB.s 			page 11


 546:.\Generated_Source\PSoC5/ADC_SAR_2.c **** * Side Effects:
 547:.\Generated_Source\PSoC5/ADC_SAR_2.c **** *  Converts the ADC counts to the 2s complement form.
 548:.\Generated_Source\PSoC5/ADC_SAR_2.c **** *
 549:.\Generated_Source\PSoC5/ADC_SAR_2.c **** *******************************************************************************/
 550:.\Generated_Source\PSoC5/ADC_SAR_2.c **** int16 ADC_SAR_2_GetResult16( void )
 551:.\Generated_Source\PSoC5/ADC_SAR_2.c **** {
 552:.\Generated_Source\PSoC5/ADC_SAR_2.c ****     uint16 res;
 553:.\Generated_Source\PSoC5/ADC_SAR_2.c **** 
 554:.\Generated_Source\PSoC5/ADC_SAR_2.c ****     res = CY_GET_REG16(ADC_SAR_2_SAR_WRK_PTR);
 555:.\Generated_Source\PSoC5/ADC_SAR_2.c **** 
 556:.\Generated_Source\PSoC5/ADC_SAR_2.c ****     return( (int16)res - ADC_SAR_2_shift );
 557:.\Generated_Source\PSoC5/ADC_SAR_2.c **** }
 558:.\Generated_Source\PSoC5/ADC_SAR_2.c **** 
 559:.\Generated_Source\PSoC5/ADC_SAR_2.c **** 
 560:.\Generated_Source\PSoC5/ADC_SAR_2.c **** /*******************************************************************************
 561:.\Generated_Source\PSoC5/ADC_SAR_2.c **** * Function Name: ADC_SAR_2_SetOffset
 562:.\Generated_Source\PSoC5/ADC_SAR_2.c **** ********************************************************************************
 563:.\Generated_Source\PSoC5/ADC_SAR_2.c **** *
 564:.\Generated_Source\PSoC5/ADC_SAR_2.c **** * Summary:
 565:.\Generated_Source\PSoC5/ADC_SAR_2.c **** *  Sets the ADC offset, which is used by ADC_SAR_2_CountsTo_Volts(),
 566:.\Generated_Source\PSoC5/ADC_SAR_2.c **** *  ADC_SAR_2_CountsTo_mVolts(), and ADC_SAR_2_CountsTo_uVolts()
 567:.\Generated_Source\PSoC5/ADC_SAR_2.c **** *  to subtract the offset from the given reading before calculating the voltage
 568:.\Generated_Source\PSoC5/ADC_SAR_2.c **** *  conversion.
 569:.\Generated_Source\PSoC5/ADC_SAR_2.c **** *
 570:.\Generated_Source\PSoC5/ADC_SAR_2.c **** * Parameters:
 571:.\Generated_Source\PSoC5/ADC_SAR_2.c **** *  int16: This value is measured when the inputs are shorted or connected to
 572:.\Generated_Source\PSoC5/ADC_SAR_2.c ****    the same input voltage.
 573:.\Generated_Source\PSoC5/ADC_SAR_2.c **** *
 574:.\Generated_Source\PSoC5/ADC_SAR_2.c **** * Return:
 575:.\Generated_Source\PSoC5/ADC_SAR_2.c **** *  None.
 576:.\Generated_Source\PSoC5/ADC_SAR_2.c **** *
 577:.\Generated_Source\PSoC5/ADC_SAR_2.c **** * Global Variables:
 578:.\Generated_Source\PSoC5/ADC_SAR_2.c **** *  The ADC_SAR_2_offset variable modified. This variable is used for
 579:.\Generated_Source\PSoC5/ADC_SAR_2.c **** *  offset calibration purpose.
 580:.\Generated_Source\PSoC5/ADC_SAR_2.c **** *  Affects the ADC_SAR_2_CountsTo_Volts,
 581:.\Generated_Source\PSoC5/ADC_SAR_2.c **** *  ADC_SAR_2_CountsTo_mVolts, ADC_SAR_2_CountsTo_uVolts functions
 582:.\Generated_Source\PSoC5/ADC_SAR_2.c **** *  by subtracting the given offset.
 583:.\Generated_Source\PSoC5/ADC_SAR_2.c **** *
 584:.\Generated_Source\PSoC5/ADC_SAR_2.c **** *******************************************************************************/
 585:.\Generated_Source\PSoC5/ADC_SAR_2.c **** void ADC_SAR_2_SetOffset(int16 offset)
 586:.\Generated_Source\PSoC5/ADC_SAR_2.c **** {
 587:.\Generated_Source\PSoC5/ADC_SAR_2.c ****     ADC_SAR_2_offset = offset;
 588:.\Generated_Source\PSoC5/ADC_SAR_2.c **** }
 589:.\Generated_Source\PSoC5/ADC_SAR_2.c **** 
 590:.\Generated_Source\PSoC5/ADC_SAR_2.c **** 
 591:.\Generated_Source\PSoC5/ADC_SAR_2.c **** /*******************************************************************************
 592:.\Generated_Source\PSoC5/ADC_SAR_2.c **** * Function Name: ADC_SAR_2_CalcGain
 593:.\Generated_Source\PSoC5/ADC_SAR_2.c **** ********************************************************************************
 594:.\Generated_Source\PSoC5/ADC_SAR_2.c **** *
 595:.\Generated_Source\PSoC5/ADC_SAR_2.c **** * Summary:
 596:.\Generated_Source\PSoC5/ADC_SAR_2.c **** *  This function calculates the ADC gain in counts per 10 volt.
 597:.\Generated_Source\PSoC5/ADC_SAR_2.c **** *
 598:.\Generated_Source\PSoC5/ADC_SAR_2.c **** * Parameters:
 599:.\Generated_Source\PSoC5/ADC_SAR_2.c **** *  uint8: resolution
 600:.\Generated_Source\PSoC5/ADC_SAR_2.c **** *
 601:.\Generated_Source\PSoC5/ADC_SAR_2.c **** * Return:
 602:.\Generated_Source\PSoC5/ADC_SAR_2.c **** *  None.
ARM GAS  C:\Users\lilu1\AppData\Local\Temp\ccJDXxzB.s 			page 12


 603:.\Generated_Source\PSoC5/ADC_SAR_2.c **** *
 604:.\Generated_Source\PSoC5/ADC_SAR_2.c **** * Global Variables:
 605:.\Generated_Source\PSoC5/ADC_SAR_2.c **** *  ADC_SAR_2_shift variable initialized. This variable is used to
 606:.\Generated_Source\PSoC5/ADC_SAR_2.c **** *  convert the ADC counts to the 2s compliment form.
 607:.\Generated_Source\PSoC5/ADC_SAR_2.c **** *  ADC_SAR_2_countsPer10Volt variable initialized. This variable is used
 608:.\Generated_Source\PSoC5/ADC_SAR_2.c **** *  for gain calibration purpose.
 609:.\Generated_Source\PSoC5/ADC_SAR_2.c **** *
 610:.\Generated_Source\PSoC5/ADC_SAR_2.c **** *******************************************************************************/
 611:.\Generated_Source\PSoC5/ADC_SAR_2.c **** static void ADC_SAR_2_CalcGain( uint8 resolution )
 612:.\Generated_Source\PSoC5/ADC_SAR_2.c **** {
  26              		.loc 1 612 0
  27              		.cfi_startproc
  28              		@ args = 0, pretend = 0, frame = 0
  29              		@ frame_needed = 0, uses_anonymous_args = 0
  30              	.LVL0:
  31 0000 08B5     		push	{r3, lr}
  32              		.cfi_def_cfa_offset 8
  33              		.cfi_offset 3, -8
  34              		.cfi_offset 14, -4
 613:.\Generated_Source\PSoC5/ADC_SAR_2.c ****     int32 counts;
 614:.\Generated_Source\PSoC5/ADC_SAR_2.c ****     #if(!((ADC_SAR_2_DEFAULT_RANGE == ADC_SAR_2__VSS_TO_VREF) || \
 615:.\Generated_Source\PSoC5/ADC_SAR_2.c ****          (ADC_SAR_2_DEFAULT_RANGE == ADC_SAR_2__VSSA_TO_VDDA) || \
 616:.\Generated_Source\PSoC5/ADC_SAR_2.c ****          (ADC_SAR_2_DEFAULT_RANGE == ADC_SAR_2__VSSA_TO_VDAC)) )
 617:.\Generated_Source\PSoC5/ADC_SAR_2.c ****         uint16 diff_zero;
 618:.\Generated_Source\PSoC5/ADC_SAR_2.c ****     #endif /* End ADC_SAR_2_DEFAULT_RANGE */
 619:.\Generated_Source\PSoC5/ADC_SAR_2.c **** 
 620:.\Generated_Source\PSoC5/ADC_SAR_2.c ****     switch (resolution)
  35              		.loc 1 620 0
  36 0002 0A28     		cmp	r0, #10
  37 0004 0FD0     		beq	.L6
  38 0006 0C28     		cmp	r0, #12
  39 0008 02D0     		beq	.L4
  40 000a 0828     		cmp	r0, #8
  41 000c 06D1     		bne	.L7
  42 000e 02E0     		b	.L5
  43              	.L4:
 621:.\Generated_Source\PSoC5/ADC_SAR_2.c ****     {
 622:.\Generated_Source\PSoC5/ADC_SAR_2.c ****         case (uint8)ADC_SAR_2__BITS_12:
 623:.\Generated_Source\PSoC5/ADC_SAR_2.c ****             counts = (int32)ADC_SAR_2_SAR_WRK_MAX_12BIT;
  44              		.loc 1 623 0
  45 0010 4FF48052 		mov	r2, #4096
  46 0014 09E0     		b	.L3
  47              	.L5:
  48              	.LVL1:
 624:.\Generated_Source\PSoC5/ADC_SAR_2.c ****             #if(!((ADC_SAR_2_DEFAULT_RANGE == ADC_SAR_2__VSS_TO_VREF) || \
 625:.\Generated_Source\PSoC5/ADC_SAR_2.c ****                  (ADC_SAR_2_DEFAULT_RANGE == ADC_SAR_2__VSSA_TO_VDDA) || \
 626:.\Generated_Source\PSoC5/ADC_SAR_2.c ****                  (ADC_SAR_2_DEFAULT_RANGE == ADC_SAR_2__VSSA_TO_VDAC)) )
 627:.\Generated_Source\PSoC5/ADC_SAR_2.c ****                 diff_zero = ADC_SAR_2_SAR_DIFF_SHIFT;
 628:.\Generated_Source\PSoC5/ADC_SAR_2.c ****             #endif /* End ADC_SAR_2_DEFAULT_RANGE */
 629:.\Generated_Source\PSoC5/ADC_SAR_2.c ****             break;
 630:.\Generated_Source\PSoC5/ADC_SAR_2.c ****         case (uint8)ADC_SAR_2__BITS_10:
 631:.\Generated_Source\PSoC5/ADC_SAR_2.c ****             counts = (int32)ADC_SAR_2_SAR_WRK_MAX_10BIT;
 632:.\Generated_Source\PSoC5/ADC_SAR_2.c ****             #if(!((ADC_SAR_2_DEFAULT_RANGE == ADC_SAR_2__VSS_TO_VREF) || \
 633:.\Generated_Source\PSoC5/ADC_SAR_2.c ****                  (ADC_SAR_2_DEFAULT_RANGE == ADC_SAR_2__VSSA_TO_VDDA) || \
 634:.\Generated_Source\PSoC5/ADC_SAR_2.c ****                  (ADC_SAR_2_DEFAULT_RANGE == ADC_SAR_2__VSSA_TO_VDAC)) )
 635:.\Generated_Source\PSoC5/ADC_SAR_2.c ****                 diff_zero = ADC_SAR_2_SAR_DIFF_SHIFT >> 2u;
 636:.\Generated_Source\PSoC5/ADC_SAR_2.c ****             #endif /* End ADC_SAR_2_DEFAULT_RANGE */
ARM GAS  C:\Users\lilu1\AppData\Local\Temp\ccJDXxzB.s 			page 13


 637:.\Generated_Source\PSoC5/ADC_SAR_2.c ****             break;
 638:.\Generated_Source\PSoC5/ADC_SAR_2.c ****         case (uint8)ADC_SAR_2__BITS_8:
 639:.\Generated_Source\PSoC5/ADC_SAR_2.c ****             counts = (int32)ADC_SAR_2_SAR_WRK_MAX_8BIT;
  49              		.loc 1 639 0
  50 0016 4FF48072 		mov	r2, #256
 640:.\Generated_Source\PSoC5/ADC_SAR_2.c ****             #if(!((ADC_SAR_2_DEFAULT_RANGE == ADC_SAR_2__VSS_TO_VREF) || \
 641:.\Generated_Source\PSoC5/ADC_SAR_2.c ****                  (ADC_SAR_2_DEFAULT_RANGE == ADC_SAR_2__VSSA_TO_VDDA) || \
 642:.\Generated_Source\PSoC5/ADC_SAR_2.c ****                  (ADC_SAR_2_DEFAULT_RANGE == ADC_SAR_2__VSSA_TO_VDAC)) )
 643:.\Generated_Source\PSoC5/ADC_SAR_2.c ****                 diff_zero = ADC_SAR_2_SAR_DIFF_SHIFT >> 4u;
 644:.\Generated_Source\PSoC5/ADC_SAR_2.c ****             #endif /* End ADC_SAR_2_DEFAULT_RANGE */
 645:.\Generated_Source\PSoC5/ADC_SAR_2.c ****             break;
  51              		.loc 1 645 0
  52 001a 06E0     		b	.L3
  53              	.LVL2:
  54              	.L7:
 646:.\Generated_Source\PSoC5/ADC_SAR_2.c ****         default: /* Halt CPU in debug mode if resolution is out of valid range */
 647:.\Generated_Source\PSoC5/ADC_SAR_2.c ****             counts = 0;
 648:.\Generated_Source\PSoC5/ADC_SAR_2.c ****             #if(!((ADC_SAR_2_DEFAULT_RANGE == ADC_SAR_2__VSS_TO_VREF) || \
 649:.\Generated_Source\PSoC5/ADC_SAR_2.c ****                  (ADC_SAR_2_DEFAULT_RANGE == ADC_SAR_2__VSSA_TO_VDDA) || \
 650:.\Generated_Source\PSoC5/ADC_SAR_2.c ****                  (ADC_SAR_2_DEFAULT_RANGE == ADC_SAR_2__VSSA_TO_VDAC)) )
 651:.\Generated_Source\PSoC5/ADC_SAR_2.c ****                 diff_zero = 0u;
 652:.\Generated_Source\PSoC5/ADC_SAR_2.c ****             #endif /* End ADC_SAR_2_DEFAULT_RANGE */
 653:.\Generated_Source\PSoC5/ADC_SAR_2.c ****             CYASSERT(0u != 0u);
  55              		.loc 1 653 0
  56 001c 0020     		movs	r0, #0
  57              	.LVL3:
  58 001e FFF7FEFF 		bl	CyHalt
  59              	.LVL4:
 647:.\Generated_Source\PSoC5/ADC_SAR_2.c ****             #if(!((ADC_SAR_2_DEFAULT_RANGE == ADC_SAR_2__VSS_TO_VREF) || \
  60              		.loc 1 647 0
  61 0022 0022     		movs	r2, #0
  62 0024 01E0     		b	.L3
  63              	.LVL5:
  64              	.L6:
 631:.\Generated_Source\PSoC5/ADC_SAR_2.c ****             #if(!((ADC_SAR_2_DEFAULT_RANGE == ADC_SAR_2__VSS_TO_VREF) || \
  65              		.loc 1 631 0
  66 0026 4FF48062 		mov	r2, #1024
  67              	.LVL6:
  68              	.L3:
 654:.\Generated_Source\PSoC5/ADC_SAR_2.c ****             break;
 655:.\Generated_Source\PSoC5/ADC_SAR_2.c ****     }
 656:.\Generated_Source\PSoC5/ADC_SAR_2.c ****     ADC_SAR_2_countsPerVolt = 0; /* Clear obsolete variable */
  69              		.loc 1 656 0
  70 002a 0021     		movs	r1, #0
  71 002c 094B     		ldr	r3, .L9
  72 002e 1980     		strh	r1, [r3]	@ movhi
 657:.\Generated_Source\PSoC5/ADC_SAR_2.c ****     /* Calculate gain in counts per 10 volts with rounding */
 658:.\Generated_Source\PSoC5/ADC_SAR_2.c ****     ADC_SAR_2_countsPer10Volt = (((counts * ADC_SAR_2_10MV_COUNTS) +
  73              		.loc 1 658 0
  74 0030 42F21073 		movw	r3, #10000
  75 0034 03FB02F3 		mul	r3, r3, r2
  76 0038 03F6C413 		addw	r3, r3, #2500
 659:.\Generated_Source\PSoC5/ADC_SAR_2.c ****                         ADC_SAR_2_DEFAULT_REF_VOLTAGE_MV) / (ADC_SAR_2_DEFAULT_REF_VOLTAGE_MV * 2))
  77              		.loc 1 659 0
  78 003c 064A     		ldr	r2, .L9+4
  79              	.LVL7:
  80 003e 82FB0302 		smull	r0, r2, r2, r3
ARM GAS  C:\Users\lilu1\AppData\Local\Temp\ccJDXxzB.s 			page 14


  81 0042 DB17     		asrs	r3, r3, #31
  82 0044 C3EBE223 		rsb	r3, r3, r2, asr #11
 658:.\Generated_Source\PSoC5/ADC_SAR_2.c ****                         ADC_SAR_2_DEFAULT_REF_VOLTAGE_MV) / (ADC_SAR_2_DEFAULT_REF_VOLTAGE_MV * 2))
  83              		.loc 1 658 0
  84 0048 044A     		ldr	r2, .L9+8
  85 004a 1360     		str	r3, [r2]
 660:.\Generated_Source\PSoC5/ADC_SAR_2.c **** 
 661:.\Generated_Source\PSoC5/ADC_SAR_2.c ****     #if( (ADC_SAR_2_DEFAULT_RANGE == ADC_SAR_2__VSS_TO_VREF) || \
 662:.\Generated_Source\PSoC5/ADC_SAR_2.c ****          (ADC_SAR_2_DEFAULT_RANGE == ADC_SAR_2__VSSA_TO_VDDA) || \
 663:.\Generated_Source\PSoC5/ADC_SAR_2.c ****          (ADC_SAR_2_DEFAULT_RANGE == ADC_SAR_2__VSSA_TO_VDAC) )
 664:.\Generated_Source\PSoC5/ADC_SAR_2.c ****         ADC_SAR_2_shift = 0;
  86              		.loc 1 664 0
  87 004c 044B     		ldr	r3, .L9+12
  88 004e 1980     		strh	r1, [r3]	@ movhi
  89 0050 08BD     		pop	{r3, pc}
  90              	.L10:
  91 0052 00BF     		.align	2
  92              	.L9:
  93 0054 00000000 		.word	ADC_SAR_2_countsPerVolt
  94 0058 AD8BDB68 		.word	1759218605
  95 005c 00000000 		.word	ADC_SAR_2_countsPer10Volt
  96 0060 00000000 		.word	ADC_SAR_2_shift
  97              		.cfi_endproc
  98              	.LFE12:
  99              		.size	ADC_SAR_2_CalcGain, .-ADC_SAR_2_CalcGain
 100              		.section	.text.ADC_SAR_2_Enable,"ax",%progbits
 101              		.align	2
 102              		.global	ADC_SAR_2_Enable
 103              		.thumb
 104              		.thumb_func
 105              		.type	ADC_SAR_2_Enable, %function
 106              	ADC_SAR_2_Enable:
 107              	.LFB2:
 144:.\Generated_Source\PSoC5/ADC_SAR_2.c ****     uint8 tmpReg;
 108              		.loc 1 144 0
 109              		.cfi_startproc
 110              		@ args = 0, pretend = 0, frame = 0
 111              		@ frame_needed = 0, uses_anonymous_args = 0
 112 0000 38B5     		push	{r3, r4, r5, lr}
 113              		.cfi_def_cfa_offset 16
 114              		.cfi_offset 3, -16
 115              		.cfi_offset 4, -12
 116              		.cfi_offset 5, -8
 117              		.cfi_offset 14, -4
 147:.\Generated_Source\PSoC5/ADC_SAR_2.c **** 
 118              		.loc 1 147 0
 119 0002 FFF7FEFF 		bl	CyEnterCriticalSection
 120              	.LVL8:
 121 0006 0446     		mov	r4, r0
 122              	.LVL9:
 150:.\Generated_Source\PSoC5/ADC_SAR_2.c **** 
 123              		.loc 1 150 0
 124 0008 1E4A     		ldr	r2, .L13
 125 000a 1378     		ldrb	r3, [r2]	@ zero_extendqisi2
 126 000c 43F00203 		orr	r3, r3, #2
 127 0010 1370     		strb	r3, [r2]
 153:.\Generated_Source\PSoC5/ADC_SAR_2.c **** 
ARM GAS  C:\Users\lilu1\AppData\Local\Temp\ccJDXxzB.s 			page 15


 128              		.loc 1 153 0
 129 0012 1032     		adds	r2, r2, #16
 130 0014 1378     		ldrb	r3, [r2]	@ zero_extendqisi2
 131 0016 43F00203 		orr	r3, r3, #2
 132 001a 1370     		strb	r3, [r2]
 157:.\Generated_Source\PSoC5/ADC_SAR_2.c ****         ADC_SAR_2_STBY_PWRMGR_CLK_REG |= ADC_SAR_2_STBY_PWR_CLK_EN;
 133              		.loc 1 157 0
 134 001c 193A     		subs	r2, r2, #25
 135 001e 1378     		ldrb	r3, [r2]	@ zero_extendqisi2
 136 0020 43F00103 		orr	r3, r3, #1
 137 0024 1370     		strb	r3, [r2]
 158:.\Generated_Source\PSoC5/ADC_SAR_2.c ****     #endif /* End ADC_SAR_2_DEFAULT_INTERNAL_CLK */
 138              		.loc 1 158 0
 139 0026 1032     		adds	r2, r2, #16
 140 0028 1378     		ldrb	r3, [r2]	@ zero_extendqisi2
 141 002a 43F00103 		orr	r3, r3, #1
 142 002e 1370     		strb	r3, [r2]
 162:.\Generated_Source\PSoC5/ADC_SAR_2.c ****     tmpReg |= ADC_SAR_2_SAR_EN_BUF_VCM_EN;
 143              		.loc 1 162 0
 144 0030 02F5AA52 		add	r2, r2, #5440
 145 0034 1932     		adds	r2, r2, #25
 146 0036 1378     		ldrb	r3, [r2]	@ zero_extendqisi2
 147              	.LVL10:
 169:.\Generated_Source\PSoC5/ADC_SAR_2.c ****     #endif /* ADC_SAR_2_DEFAULT_REFERENCE == ADC_SAR_2__EXT_REF */
 148              		.loc 1 169 0
 149 0038 43F00303 		orr	r3, r3, #3
 150              	.LVL11:
 171:.\Generated_Source\PSoC5/ADC_SAR_2.c **** 
 151              		.loc 1 171 0
 152 003c 1370     		strb	r3, [r2]
 182:.\Generated_Source\PSoC5/ADC_SAR_2.c ****         #else /* INTREF Bypassed of External */
 153              		.loc 1 182 0
 154 003e 1822     		movs	r2, #24
 155 0040 114B     		ldr	r3, .L13+4
 156              	.LVL12:
 157 0042 1A70     		strb	r2, [r3]
 158              	.LVL13:
 192:.\Generated_Source\PSoC5/ADC_SAR_2.c ****     #endif /* ADC_SAR_2_HIGH_POWER_PULSE == 0u */
 159              		.loc 1 192 0
 160 0044 013B     		subs	r3, r3, #1
 161 0046 1A78     		ldrb	r2, [r3]	@ zero_extendqisi2
 162 0048 42F04002 		orr	r2, r2, #64
 163 004c 1A70     		strb	r2, [r3]
 202:.\Generated_Source\PSoC5/ADC_SAR_2.c ****     #endif /* ADC_SAR_2_HIGH_POWER_PULSE == 0u */
 164              		.loc 1 202 0
 165 004e 1A78     		ldrb	r2, [r3]	@ zero_extendqisi2
 166 0050 02F0FC02 		and	r2, r2, #252
 167 0054 1A70     		strb	r2, [r3]
 206:.\Generated_Source\PSoC5/ADC_SAR_2.c ****     /* SAR_HIZ_CLEAR:   Should not be used for LP */
 168              		.loc 1 206 0
 169 0056 CE22     		movs	r2, #206
 170 0058 053B     		subs	r3, r3, #5
 171 005a 1A70     		strb	r2, [r3]
 218:.\Generated_Source\PSoC5/ADC_SAR_2.c **** 
 172              		.loc 1 218 0
 173 005c 0225     		movs	r5, #2
 174 005e A3F59753 		sub	r3, r3, #4832
ARM GAS  C:\Users\lilu1\AppData\Local\Temp\ccJDXxzB.s 			page 16


 175 0062 123B     		subs	r3, r3, #18
 176 0064 1D70     		strb	r5, [r3]
 221:.\Generated_Source\PSoC5/ADC_SAR_2.c **** 
 177              		.loc 1 221 0
 178 0066 094A     		ldr	r2, .L13+8
 179 0068 1378     		ldrb	r3, [r2]	@ zero_extendqisi2
 180 006a 43F00803 		orr	r3, r3, #8
 181 006e 1370     		strb	r3, [r2]
 223:.\Generated_Source\PSoC5/ADC_SAR_2.c **** 
 182              		.loc 1 223 0
 183 0070 0A20     		movs	r0, #10
 184 0072 FFF7FEFF 		bl	CyDelayUs
 185              	.LVL14:
 227:.\Generated_Source\PSoC5/ADC_SAR_2.c ****     #endif   /* End ADC_SAR_2_IRQ_REMOVE */
 186              		.loc 1 227 0
 187 0076 064B     		ldr	r3, .L13+12
 188 0078 1D60     		str	r5, [r3]
 230:.\Generated_Source\PSoC5/ADC_SAR_2.c **** }
 189              		.loc 1 230 0
 190 007a 2046     		mov	r0, r4
 191 007c FFF7FEFF 		bl	CyExitCriticalSection
 192              	.LVL15:
 193 0080 38BD     		pop	{r3, r4, r5, pc}
 194              	.LVL16:
 195              	.L14:
 196 0082 00BF     		.align	2
 197              	.L13:
 198 0084 AB430040 		.word	1073759147
 199 0088 0E590040 		.word	1073764622
 200 008c 2F5B0040 		.word	1073765167
 201 0090 80E200E0 		.word	-536812928
 202              		.cfi_endproc
 203              	.LFE2:
 204              		.size	ADC_SAR_2_Enable, .-ADC_SAR_2_Enable
 205              		.section	.text.ADC_SAR_2_Stop,"ax",%progbits
 206              		.align	2
 207              		.global	ADC_SAR_2_Stop
 208              		.thumb
 209              		.thumb_func
 210              		.type	ADC_SAR_2_Stop, %function
 211              	ADC_SAR_2_Stop:
 212              	.LFB3:
 249:.\Generated_Source\PSoC5/ADC_SAR_2.c ****     uint8 enableInterrupts;
 213              		.loc 1 249 0
 214              		.cfi_startproc
 215              		@ args = 0, pretend = 0, frame = 0
 216              		@ frame_needed = 0, uses_anonymous_args = 0
 217 0000 08B5     		push	{r3, lr}
 218              		.cfi_def_cfa_offset 8
 219              		.cfi_offset 3, -8
 220              		.cfi_offset 14, -4
 251:.\Generated_Source\PSoC5/ADC_SAR_2.c **** 
 221              		.loc 1 251 0
 222 0002 FFF7FEFF 		bl	CyEnterCriticalSection
 223              	.LVL17:
 254:.\Generated_Source\PSoC5/ADC_SAR_2.c ****     /* Disable the SAR ADC block in Active Power Mode */
 224              		.loc 1 254 0
ARM GAS  C:\Users\lilu1\AppData\Local\Temp\ccJDXxzB.s 			page 17


 225 0006 0F4A     		ldr	r2, .L17
 226 0008 1378     		ldrb	r3, [r2]	@ zero_extendqisi2
 227 000a 03F0FE03 		and	r3, r3, #254
 228 000e 1370     		strb	r3, [r2]
 256:.\Generated_Source\PSoC5/ADC_SAR_2.c ****     /* Disable the SAR ADC in Standby Power Mode */
 229              		.loc 1 256 0
 230 0010 A2F5AA52 		sub	r2, r2, #5440
 231 0014 1D3A     		subs	r2, r2, #29
 232 0016 1378     		ldrb	r3, [r2]	@ zero_extendqisi2
 233 0018 03F0FD03 		and	r3, r3, #253
 234 001c 1370     		strb	r3, [r2]
 258:.\Generated_Source\PSoC5/ADC_SAR_2.c **** 
 235              		.loc 1 258 0
 236 001e 1032     		adds	r2, r2, #16
 237 0020 1378     		ldrb	r3, [r2]	@ zero_extendqisi2
 238 0022 03F0FD03 		and	r3, r3, #253
 239 0026 1370     		strb	r3, [r2]
 262:.\Generated_Source\PSoC5/ADC_SAR_2.c ****         ADC_SAR_2_STBY_PWRMGR_CLK_REG &= (uint8)~ADC_SAR_2_STBY_PWR_CLK_EN;
 240              		.loc 1 262 0
 241 0028 193A     		subs	r2, r2, #25
 242 002a 1378     		ldrb	r3, [r2]	@ zero_extendqisi2
 243 002c 03F0FE03 		and	r3, r3, #254
 244 0030 1370     		strb	r3, [r2]
 263:.\Generated_Source\PSoC5/ADC_SAR_2.c ****     #endif /* End ADC_SAR_2_DEFAULT_INTERNAL_CLK */
 245              		.loc 1 263 0
 246 0032 1032     		adds	r2, r2, #16
 247 0034 1378     		ldrb	r3, [r2]	@ zero_extendqisi2
 248 0036 03F0FE03 		and	r3, r3, #254
 249 003a 1370     		strb	r3, [r2]
 266:.\Generated_Source\PSoC5/ADC_SAR_2.c **** 
 250              		.loc 1 266 0
 251 003c FFF7FEFF 		bl	CyExitCriticalSection
 252              	.LVL18:
 253 0040 08BD     		pop	{r3, pc}
 254              	.L18:
 255 0042 00BF     		.align	2
 256              	.L17:
 257 0044 08590040 		.word	1073764616
 258              		.cfi_endproc
 259              	.LFE3:
 260              		.size	ADC_SAR_2_Stop, .-ADC_SAR_2_Stop
 261              		.section	.text.ADC_SAR_2_SetPower,"ax",%progbits
 262              		.align	2
 263              		.global	ADC_SAR_2_SetPower
 264              		.thumb
 265              		.thumb_func
 266              		.type	ADC_SAR_2_SetPower, %function
 267              	ADC_SAR_2_SetPower:
 268              	.LFB4:
 291:.\Generated_Source\PSoC5/ADC_SAR_2.c ****     uint8 tmpReg;
 269              		.loc 1 291 0
 270              		.cfi_startproc
 271              		@ args = 0, pretend = 0, frame = 0
 272              		@ frame_needed = 0, uses_anonymous_args = 0
 273              		@ link register save eliminated.
 274              	.LVL19:
 295:.\Generated_Source\PSoC5/ADC_SAR_2.c **** 
ARM GAS  C:\Users\lilu1\AppData\Local\Temp\ccJDXxzB.s 			page 18


 275              		.loc 1 295 0
 276 0000 00F00300 		and	r0, r0, #3
 277              	.LVL20:
 298:.\Generated_Source\PSoC5/ADC_SAR_2.c ****     tmpReg |= (uint8)(power << ADC_SAR_2_SAR_POWER_SHIFT);
 278              		.loc 1 298 0
 279 0004 034A     		ldr	r2, .L20
 280 0006 1378     		ldrb	r3, [r2]	@ zero_extendqisi2
 281 0008 03F03F03 		and	r3, r3, #63
 282              	.LVL21:
 299:.\Generated_Source\PSoC5/ADC_SAR_2.c ****     ADC_SAR_2_SAR_CSR0_REG = tmpReg;
 283              		.loc 1 299 0
 284 000c 43EA8010 		orr	r0, r3, r0, lsl #6
 285              	.LVL22:
 300:.\Generated_Source\PSoC5/ADC_SAR_2.c **** }
 286              		.loc 1 300 0
 287 0010 1070     		strb	r0, [r2]
 288 0012 7047     		bx	lr
 289              	.L21:
 290              		.align	2
 291              	.L20:
 292 0014 08590040 		.word	1073764616
 293              		.cfi_endproc
 294              	.LFE4:
 295              		.size	ADC_SAR_2_SetPower, .-ADC_SAR_2_SetPower
 296              		.section	.text.ADC_SAR_2_SetResolution,"ax",%progbits
 297              		.align	2
 298              		.global	ADC_SAR_2_SetResolution
 299              		.thumb
 300              		.thumb_func
 301              		.type	ADC_SAR_2_SetResolution, %function
 302              	ADC_SAR_2_SetResolution:
 303              	.LFB5:
 341:.\Generated_Source\PSoC5/ADC_SAR_2.c ****     uint8 tmpReg;
 304              		.loc 1 341 0
 305              		.cfi_startproc
 306              		@ args = 0, pretend = 0, frame = 0
 307              		@ frame_needed = 0, uses_anonymous_args = 0
 308              	.LVL23:
 309 0000 10B5     		push	{r4, lr}
 310              		.cfi_def_cfa_offset 8
 311              		.cfi_offset 4, -8
 312              		.cfi_offset 14, -4
 313 0002 0446     		mov	r4, r0
 345:.\Generated_Source\PSoC5/ADC_SAR_2.c ****     {
 314              		.loc 1 345 0
 315 0004 0A28     		cmp	r0, #10
 316 0006 0DD0     		beq	.L27
 317 0008 0C28     		cmp	r0, #12
 318 000a 02D0     		beq	.L25
 319 000c 0828     		cmp	r0, #8
 320 000e 04D1     		bne	.L28
 321 0010 01E0     		b	.L26
 322              	.L25:
 348:.\Generated_Source\PSoC5/ADC_SAR_2.c ****             break;
 323              		.loc 1 348 0
 324 0012 C222     		movs	r2, #194
 325 0014 07E0     		b	.L24
ARM GAS  C:\Users\lilu1\AppData\Local\Temp\ccJDXxzB.s 			page 19


 326              	.L26:
 327              	.LVL24:
 354:.\Generated_Source\PSoC5/ADC_SAR_2.c ****             break;
 328              		.loc 1 354 0
 329 0016 4222     		movs	r2, #66
 355:.\Generated_Source\PSoC5/ADC_SAR_2.c ****         default:
 330              		.loc 1 355 0
 331 0018 05E0     		b	.L24
 332              	.LVL25:
 333              	.L28:
 359:.\Generated_Source\PSoC5/ADC_SAR_2.c ****             break;
 334              		.loc 1 359 0
 335 001a 0020     		movs	r0, #0
 336              	.LVL26:
 337 001c FFF7FEFF 		bl	CyHalt
 338              	.LVL27:
 357:.\Generated_Source\PSoC5/ADC_SAR_2.c ****             /* Halt CPU in debug mode if resolution is out of valid range */
 339              		.loc 1 357 0
 340 0020 C222     		movs	r2, #194
 341 0022 00E0     		b	.L24
 342              	.LVL28:
 343              	.L27:
 351:.\Generated_Source\PSoC5/ADC_SAR_2.c ****             break;
 344              		.loc 1 351 0
 345 0024 8222     		movs	r2, #130
 346              	.LVL29:
 347              	.L24:
 362:.\Generated_Source\PSoC5/ADC_SAR_2.c **** 
 348              		.loc 1 362 0
 349 0026 034B     		ldr	r3, .L30
 350 0028 1A70     		strb	r2, [r3]
 365:.\Generated_Source\PSoC5/ADC_SAR_2.c **** }
 351              		.loc 1 365 0
 352 002a 2046     		mov	r0, r4
 353 002c FFF7FEFF 		bl	ADC_SAR_2_CalcGain
 354              	.LVL30:
 355 0030 10BD     		pop	{r4, pc}
 356              	.L31:
 357 0032 00BF     		.align	2
 358              	.L30:
 359 0034 0A590040 		.word	1073764618
 360              		.cfi_endproc
 361              	.LFE5:
 362              		.size	ADC_SAR_2_SetResolution, .-ADC_SAR_2_SetResolution
 363              		.section	.text.ADC_SAR_2_Init,"ax",%progbits
 364              		.align	2
 365              		.global	ADC_SAR_2_Init
 366              		.thumb
 367              		.thumb_func
 368              		.type	ADC_SAR_2_Init, %function
 369              	ADC_SAR_2_Init:
 370              	.LFB1:
 107:.\Generated_Source\PSoC5/ADC_SAR_2.c **** 
 371              		.loc 1 107 0
 372              		.cfi_startproc
 373              		@ args = 0, pretend = 0, frame = 0
 374              		@ frame_needed = 0, uses_anonymous_args = 0
ARM GAS  C:\Users\lilu1\AppData\Local\Temp\ccJDXxzB.s 			page 20


 375 0000 08B5     		push	{r3, lr}
 376              		.cfi_def_cfa_offset 8
 377              		.cfi_offset 3, -8
 378              		.cfi_offset 14, -4
 111:.\Generated_Source\PSoC5/ADC_SAR_2.c ****     #endif /* End ADC_SAR_2_DEFAULT_INTERNAL_CLK */
 379              		.loc 1 111 0
 380 0002 1020     		movs	r0, #16
 381 0004 FFF7FEFF 		bl	ADC_SAR_2_theACLK_SetModeRegister
 382              	.LVL31:
 116:.\Generated_Source\PSoC5/ADC_SAR_2.c ****         (void)CyIntSetVector(ADC_SAR_2_INTC_NUMBER, &ADC_SAR_2_ISR);
 383              		.loc 1 116 0
 384 0008 0120     		movs	r0, #1
 385 000a 0721     		movs	r1, #7
 386 000c FFF7FEFF 		bl	CyIntSetPriority
 387              	.LVL32:
 117:.\Generated_Source\PSoC5/ADC_SAR_2.c ****     #endif   /* End ADC_SAR_2_IRQ_REMOVE */
 388              		.loc 1 117 0
 389 0010 0120     		movs	r0, #1
 390 0012 0749     		ldr	r1, .L34
 391 0014 FFF7FEFF 		bl	CyIntSetVector
 392              	.LVL33:
 121:.\Generated_Source\PSoC5/ADC_SAR_2.c **** 
 393              		.loc 1 121 0
 394 0018 064A     		ldr	r2, .L34+4
 395 001a 1378     		ldrb	r3, [r2]	@ zero_extendqisi2
 396 001c 43F00603 		orr	r3, r3, #6
 397 0020 1370     		strb	r3, [r2]
 124:.\Generated_Source\PSoC5/ADC_SAR_2.c ****     ADC_SAR_2_offset = 0;
 398              		.loc 1 124 0
 399 0022 0C20     		movs	r0, #12
 400 0024 FFF7FEFF 		bl	ADC_SAR_2_SetResolution
 401              	.LVL34:
 125:.\Generated_Source\PSoC5/ADC_SAR_2.c **** }
 402              		.loc 1 125 0
 403 0028 0022     		movs	r2, #0
 404 002a 034B     		ldr	r3, .L34+8
 405 002c 1A80     		strh	r2, [r3]	@ movhi
 406 002e 08BD     		pop	{r3, pc}
 407              	.L35:
 408              		.align	2
 409              	.L34:
 410 0030 00000000 		.word	ADC_SAR_2_ISR
 411 0034 09590040 		.word	1073764617
 412 0038 00000000 		.word	ADC_SAR_2_offset
 413              		.cfi_endproc
 414              	.LFE1:
 415              		.size	ADC_SAR_2_Init, .-ADC_SAR_2_Init
 416              		.section	.text.ADC_SAR_2_Start,"ax",%progbits
 417              		.align	2
 418              		.global	ADC_SAR_2_Start
 419              		.thumb
 420              		.thumb_func
 421              		.type	ADC_SAR_2_Start, %function
 422              	ADC_SAR_2_Start:
 423              	.LFB0:
  75:.\Generated_Source\PSoC5/ADC_SAR_2.c **** 
 424              		.loc 1 75 0
ARM GAS  C:\Users\lilu1\AppData\Local\Temp\ccJDXxzB.s 			page 21


 425              		.cfi_startproc
 426              		@ args = 0, pretend = 0, frame = 0
 427              		@ frame_needed = 0, uses_anonymous_args = 0
 428 0000 08B5     		push	{r3, lr}
 429              		.cfi_def_cfa_offset 8
 430              		.cfi_offset 3, -8
 431              		.cfi_offset 14, -4
  78:.\Generated_Source\PSoC5/ADC_SAR_2.c ****     {
 432              		.loc 1 78 0
 433 0002 054B     		ldr	r3, .L39
 434 0004 1B78     		ldrb	r3, [r3]	@ zero_extendqisi2
 435 0006 23B9     		cbnz	r3, .L37
  80:.\Generated_Source\PSoC5/ADC_SAR_2.c ****         ADC_SAR_2_initVar = 1u;
 436              		.loc 1 80 0
 437 0008 FFF7FEFF 		bl	ADC_SAR_2_Init
 438              	.LVL35:
  81:.\Generated_Source\PSoC5/ADC_SAR_2.c ****     }
 439              		.loc 1 81 0
 440 000c 0122     		movs	r2, #1
 441 000e 024B     		ldr	r3, .L39
 442 0010 1A70     		strb	r2, [r3]
 443              	.L37:
  83:.\Generated_Source\PSoC5/ADC_SAR_2.c **** }
 444              		.loc 1 83 0
 445 0012 FFF7FEFF 		bl	ADC_SAR_2_Enable
 446              	.LVL36:
 447 0016 08BD     		pop	{r3, pc}
 448              	.L40:
 449              		.align	2
 450              	.L39:
 451 0018 00000000 		.word	.LANCHOR0
 452              		.cfi_endproc
 453              	.LFE0:
 454              		.size	ADC_SAR_2_Start, .-ADC_SAR_2_Start
 455              		.section	.text.ADC_SAR_2_StartConvert,"ax",%progbits
 456              		.align	2
 457              		.global	ADC_SAR_2_StartConvert
 458              		.thumb
 459              		.thumb_func
 460              		.type	ADC_SAR_2_StartConvert, %function
 461              	ADC_SAR_2_StartConvert:
 462              	.LFB6:
 402:.\Generated_Source\PSoC5/ADC_SAR_2.c ****         #if(ADC_SAR_2_DEFAULT_CONV_MODE != ADC_SAR_2__FREE_RUNNING)  /* If software triggered mode 
 463              		.loc 1 402 0
 464              		.cfi_startproc
 465              		@ args = 0, pretend = 0, frame = 0
 466              		@ frame_needed = 0, uses_anonymous_args = 0
 467              		@ link register save eliminated.
 404:.\Generated_Source\PSoC5/ADC_SAR_2.c ****         #endif /* End ADC_SAR_2_DEFAULT_CONV_MODE */
 468              		.loc 1 404 0
 469 0000 044B     		ldr	r3, .L42
 470 0002 1A78     		ldrb	r2, [r3]	@ zero_extendqisi2
 471 0004 02F0FB02 		and	r2, r2, #251
 472 0008 1A70     		strb	r2, [r3]
 408:.\Generated_Source\PSoC5/ADC_SAR_2.c ****     }
 473              		.loc 1 408 0
 474 000a 1A78     		ldrb	r2, [r3]	@ zero_extendqisi2
ARM GAS  C:\Users\lilu1\AppData\Local\Temp\ccJDXxzB.s 			page 22


 475 000c 42F00102 		orr	r2, r2, #1
 476 0010 1A70     		strb	r2, [r3]
 477 0012 7047     		bx	lr
 478              	.L43:
 479              		.align	2
 480              	.L42:
 481 0014 08590040 		.word	1073764616
 482              		.cfi_endproc
 483              	.LFE6:
 484              		.size	ADC_SAR_2_StartConvert, .-ADC_SAR_2_StartConvert
 485              		.section	.text.ADC_SAR_2_StopConvert,"ax",%progbits
 486              		.align	2
 487              		.global	ADC_SAR_2_StopConvert
 488              		.thumb
 489              		.thumb_func
 490              		.type	ADC_SAR_2_StopConvert, %function
 491              	ADC_SAR_2_StopConvert:
 492              	.LFB7:
 436:.\Generated_Source\PSoC5/ADC_SAR_2.c ****         /* Stop all conversions */
 493              		.loc 1 436 0
 494              		.cfi_startproc
 495              		@ args = 0, pretend = 0, frame = 0
 496              		@ frame_needed = 0, uses_anonymous_args = 0
 497              		@ link register save eliminated.
 438:.\Generated_Source\PSoC5/ADC_SAR_2.c **** 
 498              		.loc 1 438 0
 499 0000 044B     		ldr	r3, .L45
 500 0002 1A78     		ldrb	r2, [r3]	@ zero_extendqisi2
 501 0004 02F0FE02 		and	r2, r2, #254
 502 0008 1A70     		strb	r2, [r3]
 442:.\Generated_Source\PSoC5/ADC_SAR_2.c ****         #endif /* End ADC_SAR_2_DEFAULT_CONV_MODE */
 503              		.loc 1 442 0
 504 000a 1A78     		ldrb	r2, [r3]	@ zero_extendqisi2
 505 000c 42F00402 		orr	r2, r2, #4
 506 0010 1A70     		strb	r2, [r3]
 507 0012 7047     		bx	lr
 508              	.L46:
 509              		.align	2
 510              	.L45:
 511 0014 08590040 		.word	1073764616
 512              		.cfi_endproc
 513              	.LFE7:
 514              		.size	ADC_SAR_2_StopConvert, .-ADC_SAR_2_StopConvert
 515              		.section	.text.ADC_SAR_2_IsEndConversion,"ax",%progbits
 516              		.align	2
 517              		.global	ADC_SAR_2_IsEndConversion
 518              		.thumb
 519              		.thumb_func
 520              		.type	ADC_SAR_2_IsEndConversion, %function
 521              	ADC_SAR_2_IsEndConversion:
 522              	.LFB8:
 476:.\Generated_Source\PSoC5/ADC_SAR_2.c ****     uint8 status;
 523              		.loc 1 476 0
 524              		.cfi_startproc
 525              		@ args = 0, pretend = 0, frame = 0
 526              		@ frame_needed = 0, uses_anonymous_args = 0
 527              	.LVL37:
ARM GAS  C:\Users\lilu1\AppData\Local\Temp\ccJDXxzB.s 			page 23


 528 0000 10B5     		push	{r4, lr}
 529              		.cfi_def_cfa_offset 8
 530              		.cfi_offset 4, -8
 531              		.cfi_offset 14, -4
 532              	.L49:
 481:.\Generated_Source\PSoC5/ADC_SAR_2.c ****     } while ((status != ADC_SAR_2_SAR_EOF_1) && (retMode == ADC_SAR_2_WAIT_FOR_RESULT));
 533              		.loc 1 481 0 discriminator 2
 534 0002 074B     		ldr	r3, .L52
 535 0004 1B78     		ldrb	r3, [r3]	@ zero_extendqisi2
 536              	.LVL38:
 482:.\Generated_Source\PSoC5/ADC_SAR_2.c ****     /* If convertion complete, wait until EOF bit released */
 537              		.loc 1 482 0 discriminator 2
 538 0006 13F00104 		ands	r4, r3, #1
 539 000a 01D1     		bne	.L48
 482:.\Generated_Source\PSoC5/ADC_SAR_2.c ****     /* If convertion complete, wait until EOF bit released */
 540              		.loc 1 482 0 is_stmt 0 discriminator 1
 541 000c 0028     		cmp	r0, #0
 542 000e F8D0     		beq	.L49
 543              	.L48:
 484:.\Generated_Source\PSoC5/ADC_SAR_2.c ****     {
 544              		.loc 1 484 0 is_stmt 1
 545 0010 24B1     		cbz	r4, .L50
 487:.\Generated_Source\PSoC5/ADC_SAR_2.c ****         /* Do the unconditional read operation of the CSR1 register to make sure the EOC bit has be
 546              		.loc 1 487 0
 547 0012 0120     		movs	r0, #1
 548              	.LVL39:
 549 0014 FFF7FEFF 		bl	CyDelayUs
 550              	.LVL40:
 489:.\Generated_Source\PSoC5/ADC_SAR_2.c ****     }
 551              		.loc 1 489 0
 552 0018 014B     		ldr	r3, .L52
 553 001a 1B78     		ldrb	r3, [r3]	@ zero_extendqisi2
 554              	.L50:
 493:.\Generated_Source\PSoC5/ADC_SAR_2.c **** 
 555              		.loc 1 493 0
 556 001c 2046     		mov	r0, r4
 557 001e 10BD     		pop	{r4, pc}
 558              	.L53:
 559              		.align	2
 560              	.L52:
 561 0020 09590040 		.word	1073764617
 562              		.cfi_endproc
 563              	.LFE8:
 564              		.size	ADC_SAR_2_IsEndConversion, .-ADC_SAR_2_IsEndConversion
 565              		.section	.text.ADC_SAR_2_GetResult8,"ax",%progbits
 566              		.align	2
 567              		.global	ADC_SAR_2_GetResult8
 568              		.thumb
 569              		.thumb_func
 570              		.type	ADC_SAR_2_GetResult8, %function
 571              	ADC_SAR_2_GetResult8:
 572              	.LFB9:
 521:.\Generated_Source\PSoC5/ADC_SAR_2.c ****     return( (int8)ADC_SAR_2_SAR_WRK0_REG - (int8)ADC_SAR_2_shift);
 573              		.loc 1 521 0
 574              		.cfi_startproc
 575              		@ args = 0, pretend = 0, frame = 0
 576              		@ frame_needed = 0, uses_anonymous_args = 0
ARM GAS  C:\Users\lilu1\AppData\Local\Temp\ccJDXxzB.s 			page 24


 577              		@ link register save eliminated.
 522:.\Generated_Source\PSoC5/ADC_SAR_2.c **** }
 578              		.loc 1 522 0
 579 0000 034B     		ldr	r3, .L55
 580 0002 1B78     		ldrb	r3, [r3]	@ zero_extendqisi2
 581 0004 034A     		ldr	r2, .L55+4
 582 0006 1088     		ldrh	r0, [r2]
 583 0008 181A     		subs	r0, r3, r0
 523:.\Generated_Source\PSoC5/ADC_SAR_2.c **** 
 584              		.loc 1 523 0
 585 000a 40B2     		sxtb	r0, r0
 586 000c 7047     		bx	lr
 587              	.L56:
 588 000e 00BF     		.align	2
 589              	.L55:
 590 0010 A25B0040 		.word	1073765282
 591 0014 00000000 		.word	ADC_SAR_2_shift
 592              		.cfi_endproc
 593              	.LFE9:
 594              		.size	ADC_SAR_2_GetResult8, .-ADC_SAR_2_GetResult8
 595              		.section	.text.ADC_SAR_2_GetResult16,"ax",%progbits
 596              		.align	2
 597              		.global	ADC_SAR_2_GetResult16
 598              		.thumb
 599              		.thumb_func
 600              		.type	ADC_SAR_2_GetResult16, %function
 601              	ADC_SAR_2_GetResult16:
 602              	.LFB10:
 551:.\Generated_Source\PSoC5/ADC_SAR_2.c ****     uint16 res;
 603              		.loc 1 551 0
 604              		.cfi_startproc
 605              		@ args = 0, pretend = 0, frame = 0
 606              		@ frame_needed = 0, uses_anonymous_args = 0
 607              		@ link register save eliminated.
 554:.\Generated_Source\PSoC5/ADC_SAR_2.c **** 
 608              		.loc 1 554 0
 609 0000 034B     		ldr	r3, .L58
 610 0002 1B88     		ldrh	r3, [r3]
 611              	.LVL41:
 556:.\Generated_Source\PSoC5/ADC_SAR_2.c **** }
 612              		.loc 1 556 0
 613 0004 034A     		ldr	r2, .L58+4
 614 0006 1088     		ldrh	r0, [r2]
 615 0008 181A     		subs	r0, r3, r0
 557:.\Generated_Source\PSoC5/ADC_SAR_2.c **** 
 616              		.loc 1 557 0
 617 000a 00B2     		sxth	r0, r0
 618 000c 7047     		bx	lr
 619              	.L59:
 620 000e 00BF     		.align	2
 621              	.L58:
 622 0010 A25B0040 		.word	1073765282
 623 0014 00000000 		.word	ADC_SAR_2_shift
 624              		.cfi_endproc
 625              	.LFE10:
 626              		.size	ADC_SAR_2_GetResult16, .-ADC_SAR_2_GetResult16
 627              		.section	.text.ADC_SAR_2_SetOffset,"ax",%progbits
ARM GAS  C:\Users\lilu1\AppData\Local\Temp\ccJDXxzB.s 			page 25


 628              		.align	2
 629              		.global	ADC_SAR_2_SetOffset
 630              		.thumb
 631              		.thumb_func
 632              		.type	ADC_SAR_2_SetOffset, %function
 633              	ADC_SAR_2_SetOffset:
 634              	.LFB11:
 586:.\Generated_Source\PSoC5/ADC_SAR_2.c ****     ADC_SAR_2_offset = offset;
 635              		.loc 1 586 0
 636              		.cfi_startproc
 637              		@ args = 0, pretend = 0, frame = 0
 638              		@ frame_needed = 0, uses_anonymous_args = 0
 639              		@ link register save eliminated.
 640              	.LVL42:
 587:.\Generated_Source\PSoC5/ADC_SAR_2.c **** }
 641              		.loc 1 587 0
 642 0000 014B     		ldr	r3, .L61
 643 0002 1880     		strh	r0, [r3]	@ movhi
 644 0004 7047     		bx	lr
 645              	.L62:
 646 0006 00BF     		.align	2
 647              	.L61:
 648 0008 00000000 		.word	ADC_SAR_2_offset
 649              		.cfi_endproc
 650              	.LFE11:
 651              		.size	ADC_SAR_2_SetOffset, .-ADC_SAR_2_SetOffset
 652              		.section	.text.ADC_SAR_2_SetGain,"ax",%progbits
 653              		.align	2
 654              		.global	ADC_SAR_2_SetGain
 655              		.thumb
 656              		.thumb_func
 657              		.type	ADC_SAR_2_SetGain, %function
 658              	ADC_SAR_2_SetGain:
 659              	.LFB13:
 665:.\Generated_Source\PSoC5/ADC_SAR_2.c ****     #else
 666:.\Generated_Source\PSoC5/ADC_SAR_2.c ****         ADC_SAR_2_shift = diff_zero;
 667:.\Generated_Source\PSoC5/ADC_SAR_2.c ****     #endif /* End ADC_SAR_2_DEFAULT_RANGE */
 668:.\Generated_Source\PSoC5/ADC_SAR_2.c **** }
 669:.\Generated_Source\PSoC5/ADC_SAR_2.c **** 
 670:.\Generated_Source\PSoC5/ADC_SAR_2.c **** 
 671:.\Generated_Source\PSoC5/ADC_SAR_2.c **** /*******************************************************************************
 672:.\Generated_Source\PSoC5/ADC_SAR_2.c **** * Function Name: ADC_SAR_2_SetGain
 673:.\Generated_Source\PSoC5/ADC_SAR_2.c **** ********************************************************************************
 674:.\Generated_Source\PSoC5/ADC_SAR_2.c **** *
 675:.\Generated_Source\PSoC5/ADC_SAR_2.c **** * Summary:
 676:.\Generated_Source\PSoC5/ADC_SAR_2.c **** *  Sets the ADC gain in counts per volt for the voltage conversion functions
 677:.\Generated_Source\PSoC5/ADC_SAR_2.c **** *  that follow. This value is set by default by the reference and input range
 678:.\Generated_Source\PSoC5/ADC_SAR_2.c **** *  settings. It should only be used to further calibrate the ADC with a known
 679:.\Generated_Source\PSoC5/ADC_SAR_2.c **** *  input or if the ADC is using an external reference.
 680:.\Generated_Source\PSoC5/ADC_SAR_2.c **** *
 681:.\Generated_Source\PSoC5/ADC_SAR_2.c **** * Parameters:
 682:.\Generated_Source\PSoC5/ADC_SAR_2.c **** *  int16 adcGain counts per volt
 683:.\Generated_Source\PSoC5/ADC_SAR_2.c **** *
 684:.\Generated_Source\PSoC5/ADC_SAR_2.c **** * Return:
 685:.\Generated_Source\PSoC5/ADC_SAR_2.c **** *  None.
 686:.\Generated_Source\PSoC5/ADC_SAR_2.c **** *
 687:.\Generated_Source\PSoC5/ADC_SAR_2.c **** * Global Variables:
ARM GAS  C:\Users\lilu1\AppData\Local\Temp\ccJDXxzB.s 			page 26


 688:.\Generated_Source\PSoC5/ADC_SAR_2.c **** *  ADC_SAR_2_countsPer10Volt variable modified. This variable is used
 689:.\Generated_Source\PSoC5/ADC_SAR_2.c **** *  for gain calibration purpose.
 690:.\Generated_Source\PSoC5/ADC_SAR_2.c **** *
 691:.\Generated_Source\PSoC5/ADC_SAR_2.c **** *******************************************************************************/
 692:.\Generated_Source\PSoC5/ADC_SAR_2.c **** void ADC_SAR_2_SetGain(int16 adcGain)
 693:.\Generated_Source\PSoC5/ADC_SAR_2.c **** {
 660              		.loc 1 693 0
 661              		.cfi_startproc
 662              		@ args = 0, pretend = 0, frame = 0
 663              		@ frame_needed = 0, uses_anonymous_args = 0
 664              		@ link register save eliminated.
 665              	.LVL43:
 694:.\Generated_Source\PSoC5/ADC_SAR_2.c ****     ADC_SAR_2_countsPer10Volt = (int32)adcGain * 10;
 666              		.loc 1 694 0
 667 0000 00EB8000 		add	r0, r0, r0, lsl #2
 668              	.LVL44:
 669 0004 4000     		lsls	r0, r0, #1
 670 0006 014B     		ldr	r3, .L64
 671 0008 1860     		str	r0, [r3]
 672 000a 7047     		bx	lr
 673              	.L65:
 674              		.align	2
 675              	.L64:
 676 000c 00000000 		.word	ADC_SAR_2_countsPer10Volt
 677              		.cfi_endproc
 678              	.LFE13:
 679              		.size	ADC_SAR_2_SetGain, .-ADC_SAR_2_SetGain
 680              		.section	.text.ADC_SAR_2_SetScaledGain,"ax",%progbits
 681              		.align	2
 682              		.global	ADC_SAR_2_SetScaledGain
 683              		.thumb
 684              		.thumb_func
 685              		.type	ADC_SAR_2_SetScaledGain, %function
 686              	ADC_SAR_2_SetScaledGain:
 687              	.LFB14:
 695:.\Generated_Source\PSoC5/ADC_SAR_2.c **** }
 696:.\Generated_Source\PSoC5/ADC_SAR_2.c **** 
 697:.\Generated_Source\PSoC5/ADC_SAR_2.c **** 
 698:.\Generated_Source\PSoC5/ADC_SAR_2.c **** /*******************************************************************************
 699:.\Generated_Source\PSoC5/ADC_SAR_2.c **** * Function Name: ADC_SAR_2_SetScaledGain
 700:.\Generated_Source\PSoC5/ADC_SAR_2.c **** ********************************************************************************
 701:.\Generated_Source\PSoC5/ADC_SAR_2.c **** *
 702:.\Generated_Source\PSoC5/ADC_SAR_2.c **** * Summary:
 703:.\Generated_Source\PSoC5/ADC_SAR_2.c **** *  Sets the ADC gain in counts per 10 volt for the voltage conversion functions
 704:.\Generated_Source\PSoC5/ADC_SAR_2.c **** *  that follow. This value is set by default by the reference and input range
 705:.\Generated_Source\PSoC5/ADC_SAR_2.c **** *  settings. It should only be used to further calibrate the ADC with a known
 706:.\Generated_Source\PSoC5/ADC_SAR_2.c **** *  input or if the ADC is using an external reference.
 707:.\Generated_Source\PSoC5/ADC_SAR_2.c **** *
 708:.\Generated_Source\PSoC5/ADC_SAR_2.c **** * Parameters:
 709:.\Generated_Source\PSoC5/ADC_SAR_2.c **** *  int32 adcGain  counts per 10 volt
 710:.\Generated_Source\PSoC5/ADC_SAR_2.c **** *
 711:.\Generated_Source\PSoC5/ADC_SAR_2.c **** * Return:
 712:.\Generated_Source\PSoC5/ADC_SAR_2.c **** *  None.
 713:.\Generated_Source\PSoC5/ADC_SAR_2.c **** *
 714:.\Generated_Source\PSoC5/ADC_SAR_2.c **** * Global Variables:
 715:.\Generated_Source\PSoC5/ADC_SAR_2.c **** *  ADC_SAR_2_countsPer10Volt variable modified. This variable is used
 716:.\Generated_Source\PSoC5/ADC_SAR_2.c **** *  for gain calibration purpose.
ARM GAS  C:\Users\lilu1\AppData\Local\Temp\ccJDXxzB.s 			page 27


 717:.\Generated_Source\PSoC5/ADC_SAR_2.c **** *
 718:.\Generated_Source\PSoC5/ADC_SAR_2.c **** *******************************************************************************/
 719:.\Generated_Source\PSoC5/ADC_SAR_2.c **** void ADC_SAR_2_SetScaledGain(int32 adcGain)
 720:.\Generated_Source\PSoC5/ADC_SAR_2.c **** {
 688              		.loc 1 720 0
 689              		.cfi_startproc
 690              		@ args = 0, pretend = 0, frame = 0
 691              		@ frame_needed = 0, uses_anonymous_args = 0
 692              		@ link register save eliminated.
 693              	.LVL45:
 721:.\Generated_Source\PSoC5/ADC_SAR_2.c ****     ADC_SAR_2_countsPer10Volt = adcGain;
 694              		.loc 1 721 0
 695 0000 014B     		ldr	r3, .L67
 696 0002 1860     		str	r0, [r3]
 697 0004 7047     		bx	lr
 698              	.L68:
 699 0006 00BF     		.align	2
 700              	.L67:
 701 0008 00000000 		.word	ADC_SAR_2_countsPer10Volt
 702              		.cfi_endproc
 703              	.LFE14:
 704              		.size	ADC_SAR_2_SetScaledGain, .-ADC_SAR_2_SetScaledGain
 705              		.section	.text.ADC_SAR_2_CountsTo_mVolts,"ax",%progbits
 706              		.align	2
 707              		.global	ADC_SAR_2_CountsTo_mVolts
 708              		.thumb
 709              		.thumb_func
 710              		.type	ADC_SAR_2_CountsTo_mVolts, %function
 711              	ADC_SAR_2_CountsTo_mVolts:
 712              	.LFB15:
 722:.\Generated_Source\PSoC5/ADC_SAR_2.c **** }
 723:.\Generated_Source\PSoC5/ADC_SAR_2.c **** 
 724:.\Generated_Source\PSoC5/ADC_SAR_2.c **** 
 725:.\Generated_Source\PSoC5/ADC_SAR_2.c **** /*******************************************************************************
 726:.\Generated_Source\PSoC5/ADC_SAR_2.c **** * Function Name: ADC_SAR_2_CountsTo_mVolts
 727:.\Generated_Source\PSoC5/ADC_SAR_2.c **** ********************************************************************************
 728:.\Generated_Source\PSoC5/ADC_SAR_2.c **** *
 729:.\Generated_Source\PSoC5/ADC_SAR_2.c **** * Summary:
 730:.\Generated_Source\PSoC5/ADC_SAR_2.c **** *  Converts the ADC output to millivolts as a 16-bit integer.
 731:.\Generated_Source\PSoC5/ADC_SAR_2.c **** *
 732:.\Generated_Source\PSoC5/ADC_SAR_2.c **** * Parameters:
 733:.\Generated_Source\PSoC5/ADC_SAR_2.c **** *  int16 adcCounts:  Result from the ADC conversion
 734:.\Generated_Source\PSoC5/ADC_SAR_2.c **** *
 735:.\Generated_Source\PSoC5/ADC_SAR_2.c **** * Return:
 736:.\Generated_Source\PSoC5/ADC_SAR_2.c **** *  int16 Result in mVolts
 737:.\Generated_Source\PSoC5/ADC_SAR_2.c **** *
 738:.\Generated_Source\PSoC5/ADC_SAR_2.c **** * Global Variables:
 739:.\Generated_Source\PSoC5/ADC_SAR_2.c **** *  ADC_SAR_2_offset variable used.
 740:.\Generated_Source\PSoC5/ADC_SAR_2.c **** *  ADC_SAR_2_countsPer10Volt variable used.
 741:.\Generated_Source\PSoC5/ADC_SAR_2.c **** *
 742:.\Generated_Source\PSoC5/ADC_SAR_2.c **** *******************************************************************************/
 743:.\Generated_Source\PSoC5/ADC_SAR_2.c **** int16 ADC_SAR_2_CountsTo_mVolts(int16 adcCounts)
 744:.\Generated_Source\PSoC5/ADC_SAR_2.c **** {
 713              		.loc 1 744 0
 714              		.cfi_startproc
 715              		@ args = 0, pretend = 0, frame = 0
 716              		@ frame_needed = 0, uses_anonymous_args = 0
ARM GAS  C:\Users\lilu1\AppData\Local\Temp\ccJDXxzB.s 			page 28


 717              		@ link register save eliminated.
 718              	.LVL46:
 745:.\Generated_Source\PSoC5/ADC_SAR_2.c ****     int16 mVolts;
 746:.\Generated_Source\PSoC5/ADC_SAR_2.c ****     int32 countsPer10Volt;
 747:.\Generated_Source\PSoC5/ADC_SAR_2.c **** 
 748:.\Generated_Source\PSoC5/ADC_SAR_2.c ****     if(ADC_SAR_2_countsPerVolt != 0)
 719              		.loc 1 748 0
 720 0000 114B     		ldr	r3, .L74
 721 0002 1B88     		ldrh	r3, [r3]
 722 0004 9BB2     		uxth	r3, r3
 723 0006 33B1     		cbz	r3, .L70
 749:.\Generated_Source\PSoC5/ADC_SAR_2.c ****     {   /* Support obsolete method */
 750:.\Generated_Source\PSoC5/ADC_SAR_2.c ****         countsPer10Volt = (int32)ADC_SAR_2_countsPerVolt * 10;
 724              		.loc 1 750 0
 725 0008 0F4B     		ldr	r3, .L74
 726 000a 1988     		ldrh	r1, [r3]
 727 000c 09B2     		sxth	r1, r1
 728 000e 01EB8101 		add	r1, r1, r1, lsl #2
 729 0012 4900     		lsls	r1, r1, #1
 730              	.LVL47:
 731 0014 01E0     		b	.L71
 732              	.LVL48:
 733              	.L70:
 751:.\Generated_Source\PSoC5/ADC_SAR_2.c ****     }
 752:.\Generated_Source\PSoC5/ADC_SAR_2.c ****     else
 753:.\Generated_Source\PSoC5/ADC_SAR_2.c ****     {
 754:.\Generated_Source\PSoC5/ADC_SAR_2.c ****         countsPer10Volt = ADC_SAR_2_countsPer10Volt;
 734              		.loc 1 754 0
 735 0016 0D4B     		ldr	r3, .L74+4
 736 0018 1968     		ldr	r1, [r3]
 737              	.LVL49:
 738              	.L71:
 755:.\Generated_Source\PSoC5/ADC_SAR_2.c ****     }
 756:.\Generated_Source\PSoC5/ADC_SAR_2.c **** 
 757:.\Generated_Source\PSoC5/ADC_SAR_2.c ****     /* Subtract ADC offset */
 758:.\Generated_Source\PSoC5/ADC_SAR_2.c ****     adcCounts -= ADC_SAR_2_offset;
 739              		.loc 1 758 0
 740 001a 0D4B     		ldr	r3, .L74+8
 741 001c 1A88     		ldrh	r2, [r3]
 742 001e 821A     		subs	r2, r0, r2
 743 0020 12B2     		sxth	r2, r2
 744              	.LVL50:
 759:.\Generated_Source\PSoC5/ADC_SAR_2.c ****     /* Convert to millivolts with rounding */
 760:.\Generated_Source\PSoC5/ADC_SAR_2.c ****     mVolts = (int16)( (( (int32)adcCounts * ADC_SAR_2_10MV_COUNTS ) + ( (adcCounts > 0) ?
 745              		.loc 1 760 0
 746 0022 42F21070 		movw	r0, #10000
 747 0026 00FB02F0 		mul	r0, r0, r2
 761:.\Generated_Source\PSoC5/ADC_SAR_2.c ****                        (countsPer10Volt / 2) : (-(countsPer10Volt / 2)) )) / countsPer10Volt);
 748              		.loc 1 761 0
 749 002a 002A     		cmp	r2, #0
 750 002c 03DD     		ble	.L72
 751              		.loc 1 761 0 is_stmt 0 discriminator 1
 752 002e 01EBD173 		add	r3, r1, r1, lsr #31
 753 0032 5B10     		asrs	r3, r3, #1
 754 0034 03E0     		b	.L73
 755              	.L72:
 756              		.loc 1 761 0 discriminator 2
ARM GAS  C:\Users\lilu1\AppData\Local\Temp\ccJDXxzB.s 			page 29


 757 0036 01EBD172 		add	r2, r1, r1, lsr #31
 758              	.LVL51:
 759 003a 5210     		asrs	r2, r2, #1
 760 003c 5342     		negs	r3, r2
 761              	.L73:
 760:.\Generated_Source\PSoC5/ADC_SAR_2.c ****                        (countsPer10Volt / 2) : (-(countsPer10Volt / 2)) )) / countsPer10Volt);
 762              		.loc 1 760 0 is_stmt 1
 763 003e 0344     		add	r3, r3, r0
 764              		.loc 1 761 0
 765 0040 93FBF1F0 		sdiv	r0, r3, r1
 766              	.LVL52:
 762:.\Generated_Source\PSoC5/ADC_SAR_2.c **** 
 763:.\Generated_Source\PSoC5/ADC_SAR_2.c ****     return( mVolts );
 764:.\Generated_Source\PSoC5/ADC_SAR_2.c **** }
 767              		.loc 1 764 0
 768 0044 00B2     		sxth	r0, r0
 769 0046 7047     		bx	lr
 770              	.L75:
 771              		.align	2
 772              	.L74:
 773 0048 00000000 		.word	ADC_SAR_2_countsPerVolt
 774 004c 00000000 		.word	ADC_SAR_2_countsPer10Volt
 775 0050 00000000 		.word	ADC_SAR_2_offset
 776              		.cfi_endproc
 777              	.LFE15:
 778              		.size	ADC_SAR_2_CountsTo_mVolts, .-ADC_SAR_2_CountsTo_mVolts
 779              		.global	__aeabi_ldivmod
 780              		.section	.text.ADC_SAR_2_CountsTo_uVolts,"ax",%progbits
 781              		.align	2
 782              		.global	ADC_SAR_2_CountsTo_uVolts
 783              		.thumb
 784              		.thumb_func
 785              		.type	ADC_SAR_2_CountsTo_uVolts, %function
 786              	ADC_SAR_2_CountsTo_uVolts:
 787              	.LFB16:
 765:.\Generated_Source\PSoC5/ADC_SAR_2.c **** 
 766:.\Generated_Source\PSoC5/ADC_SAR_2.c **** 
 767:.\Generated_Source\PSoC5/ADC_SAR_2.c **** /*******************************************************************************
 768:.\Generated_Source\PSoC5/ADC_SAR_2.c **** * Function Name: ADC_SAR_2_CountsTo_uVolts
 769:.\Generated_Source\PSoC5/ADC_SAR_2.c **** ********************************************************************************
 770:.\Generated_Source\PSoC5/ADC_SAR_2.c **** *
 771:.\Generated_Source\PSoC5/ADC_SAR_2.c **** * Summary:
 772:.\Generated_Source\PSoC5/ADC_SAR_2.c **** *  Converts the ADC output to microvolts as a 32-bit integer.
 773:.\Generated_Source\PSoC5/ADC_SAR_2.c **** *
 774:.\Generated_Source\PSoC5/ADC_SAR_2.c **** * Parameters:
 775:.\Generated_Source\PSoC5/ADC_SAR_2.c **** *  int16 adcCounts: Result from the ADC conversion
 776:.\Generated_Source\PSoC5/ADC_SAR_2.c **** *
 777:.\Generated_Source\PSoC5/ADC_SAR_2.c **** * Return:
 778:.\Generated_Source\PSoC5/ADC_SAR_2.c **** *  int32 Result in micro Volts
 779:.\Generated_Source\PSoC5/ADC_SAR_2.c **** *
 780:.\Generated_Source\PSoC5/ADC_SAR_2.c **** * Global Variables:
 781:.\Generated_Source\PSoC5/ADC_SAR_2.c **** *  ADC_SAR_2_offset variable used.
 782:.\Generated_Source\PSoC5/ADC_SAR_2.c **** *  ADC_SAR_2_countsPer10Volt used to convert ADC counts to uVolts.
 783:.\Generated_Source\PSoC5/ADC_SAR_2.c **** *
 784:.\Generated_Source\PSoC5/ADC_SAR_2.c **** *******************************************************************************/
 785:.\Generated_Source\PSoC5/ADC_SAR_2.c **** int32 ADC_SAR_2_CountsTo_uVolts(int16 adcCounts)
 786:.\Generated_Source\PSoC5/ADC_SAR_2.c **** {
ARM GAS  C:\Users\lilu1\AppData\Local\Temp\ccJDXxzB.s 			page 30


 788              		.loc 1 786 0
 789              		.cfi_startproc
 790              		@ args = 0, pretend = 0, frame = 0
 791              		@ frame_needed = 0, uses_anonymous_args = 0
 792              	.LVL53:
 793 0000 38B5     		push	{r3, r4, r5, lr}
 794              		.cfi_def_cfa_offset 16
 795              		.cfi_offset 3, -16
 796              		.cfi_offset 4, -12
 797              		.cfi_offset 5, -8
 798              		.cfi_offset 14, -4
 787:.\Generated_Source\PSoC5/ADC_SAR_2.c **** 
 788:.\Generated_Source\PSoC5/ADC_SAR_2.c ****     int64 uVolts;
 789:.\Generated_Source\PSoC5/ADC_SAR_2.c ****     int32 countsPer10Volt;
 790:.\Generated_Source\PSoC5/ADC_SAR_2.c **** 
 791:.\Generated_Source\PSoC5/ADC_SAR_2.c ****     if(ADC_SAR_2_countsPerVolt != 0)
 799              		.loc 1 791 0
 800 0002 0D4B     		ldr	r3, .L80
 801 0004 1B88     		ldrh	r3, [r3]
 802 0006 9BB2     		uxth	r3, r3
 803 0008 33B1     		cbz	r3, .L77
 792:.\Generated_Source\PSoC5/ADC_SAR_2.c ****     {   /* Support obsolete method */
 793:.\Generated_Source\PSoC5/ADC_SAR_2.c ****         countsPer10Volt = (int32)ADC_SAR_2_countsPerVolt * 10;
 804              		.loc 1 793 0
 805 000a 0B4B     		ldr	r3, .L80
 806 000c 1A88     		ldrh	r2, [r3]
 807 000e 12B2     		sxth	r2, r2
 808 0010 02EB8202 		add	r2, r2, r2, lsl #2
 809 0014 5200     		lsls	r2, r2, #1
 810              	.LVL54:
 811 0016 01E0     		b	.L78
 812              	.LVL55:
 813              	.L77:
 794:.\Generated_Source\PSoC5/ADC_SAR_2.c ****     }
 795:.\Generated_Source\PSoC5/ADC_SAR_2.c ****     else
 796:.\Generated_Source\PSoC5/ADC_SAR_2.c ****     {
 797:.\Generated_Source\PSoC5/ADC_SAR_2.c ****         countsPer10Volt = ADC_SAR_2_countsPer10Volt;
 814              		.loc 1 797 0
 815 0018 084B     		ldr	r3, .L80+4
 816 001a 1A68     		ldr	r2, [r3]
 817              	.LVL56:
 818              	.L78:
 798:.\Generated_Source\PSoC5/ADC_SAR_2.c ****     }
 799:.\Generated_Source\PSoC5/ADC_SAR_2.c **** 
 800:.\Generated_Source\PSoC5/ADC_SAR_2.c ****     /* Subtract ADC offset */
 801:.\Generated_Source\PSoC5/ADC_SAR_2.c ****     adcCounts -= ADC_SAR_2_offset;
 819              		.loc 1 801 0
 820 001c 084B     		ldr	r3, .L80+8
 821 001e 1C88     		ldrh	r4, [r3]
 822              	.LVL57:
 802:.\Generated_Source\PSoC5/ADC_SAR_2.c ****     /* To convert adcCounts to microVolts it is required to be multiplied
 803:.\Generated_Source\PSoC5/ADC_SAR_2.c ****     *  on 10 million and later divide on gain in counts per 10V.
 804:.\Generated_Source\PSoC5/ADC_SAR_2.c ****     */
 805:.\Generated_Source\PSoC5/ADC_SAR_2.c ****     uVolts = (( (int64)adcCounts * ADC_SAR_2_10UV_COUNTS ) / countsPer10Volt);
 823              		.loc 1 805 0
 824 0020 041B     		subs	r4, r0, r4
 825              	.LVL58:
ARM GAS  C:\Users\lilu1\AppData\Local\Temp\ccJDXxzB.s 			page 31


 826 0022 24B2     		sxth	r4, r4
 827 0024 E517     		asrs	r5, r4, #31
 828 0026 074B     		ldr	r3, .L80+12
 829 0028 A4FB0301 		umull	r0, r1, r4, r3
 830 002c 03FB0511 		mla	r1, r3, r5, r1
 831 0030 D317     		asrs	r3, r2, #31
 832 0032 FFF7FEFF 		bl	__aeabi_ldivmod
 833              	.LVL59:
 806:.\Generated_Source\PSoC5/ADC_SAR_2.c **** 
 807:.\Generated_Source\PSoC5/ADC_SAR_2.c ****     return( uVolts );
 808:.\Generated_Source\PSoC5/ADC_SAR_2.c **** }
 834              		.loc 1 808 0
 835 0036 38BD     		pop	{r3, r4, r5, pc}
 836              	.L81:
 837              		.align	2
 838              	.L80:
 839 0038 00000000 		.word	ADC_SAR_2_countsPerVolt
 840 003c 00000000 		.word	ADC_SAR_2_countsPer10Volt
 841 0040 00000000 		.word	ADC_SAR_2_offset
 842 0044 80969800 		.word	10000000
 843              		.cfi_endproc
 844              	.LFE16:
 845              		.size	ADC_SAR_2_CountsTo_uVolts, .-ADC_SAR_2_CountsTo_uVolts
 846              		.global	__aeabi_i2f
 847              		.global	__aeabi_fmul
 848              		.global	__aeabi_fdiv
 849              		.section	.text.ADC_SAR_2_CountsTo_Volts,"ax",%progbits
 850              		.align	2
 851              		.global	ADC_SAR_2_CountsTo_Volts
 852              		.thumb
 853              		.thumb_func
 854              		.type	ADC_SAR_2_CountsTo_Volts, %function
 855              	ADC_SAR_2_CountsTo_Volts:
 856              	.LFB17:
 809:.\Generated_Source\PSoC5/ADC_SAR_2.c **** 
 810:.\Generated_Source\PSoC5/ADC_SAR_2.c **** 
 811:.\Generated_Source\PSoC5/ADC_SAR_2.c **** /*******************************************************************************
 812:.\Generated_Source\PSoC5/ADC_SAR_2.c **** * Function Name: ADC_SAR_2_CountsTo_Volts
 813:.\Generated_Source\PSoC5/ADC_SAR_2.c **** ********************************************************************************
 814:.\Generated_Source\PSoC5/ADC_SAR_2.c **** *
 815:.\Generated_Source\PSoC5/ADC_SAR_2.c **** * Summary:
 816:.\Generated_Source\PSoC5/ADC_SAR_2.c **** *  Converts the ADC output to volts as a floating-point number.
 817:.\Generated_Source\PSoC5/ADC_SAR_2.c **** *
 818:.\Generated_Source\PSoC5/ADC_SAR_2.c **** * Parameters:
 819:.\Generated_Source\PSoC5/ADC_SAR_2.c **** *  int16 adcCounts: Result from the ADC conversion
 820:.\Generated_Source\PSoC5/ADC_SAR_2.c **** *
 821:.\Generated_Source\PSoC5/ADC_SAR_2.c **** * Return:
 822:.\Generated_Source\PSoC5/ADC_SAR_2.c **** *  float Result in Volts
 823:.\Generated_Source\PSoC5/ADC_SAR_2.c **** *
 824:.\Generated_Source\PSoC5/ADC_SAR_2.c **** * Global Variables:
 825:.\Generated_Source\PSoC5/ADC_SAR_2.c **** *  ADC_SAR_2_offset variable used.
 826:.\Generated_Source\PSoC5/ADC_SAR_2.c **** *  ADC_SAR_2_countsPer10Volt used to convert ADC counts to Volts.
 827:.\Generated_Source\PSoC5/ADC_SAR_2.c **** *
 828:.\Generated_Source\PSoC5/ADC_SAR_2.c **** *******************************************************************************/
 829:.\Generated_Source\PSoC5/ADC_SAR_2.c **** float32 ADC_SAR_2_CountsTo_Volts(int16 adcCounts)
 830:.\Generated_Source\PSoC5/ADC_SAR_2.c **** {
 857              		.loc 1 830 0
ARM GAS  C:\Users\lilu1\AppData\Local\Temp\ccJDXxzB.s 			page 32


 858              		.cfi_startproc
 859              		@ args = 0, pretend = 0, frame = 0
 860              		@ frame_needed = 0, uses_anonymous_args = 0
 861              	.LVL60:
 862 0000 38B5     		push	{r3, r4, r5, lr}
 863              		.cfi_def_cfa_offset 16
 864              		.cfi_offset 3, -16
 865              		.cfi_offset 4, -12
 866              		.cfi_offset 5, -8
 867              		.cfi_offset 14, -4
 831:.\Generated_Source\PSoC5/ADC_SAR_2.c ****     float32 volts;
 832:.\Generated_Source\PSoC5/ADC_SAR_2.c ****     int32 countsPer10Volt;
 833:.\Generated_Source\PSoC5/ADC_SAR_2.c **** 
 834:.\Generated_Source\PSoC5/ADC_SAR_2.c ****     if(ADC_SAR_2_countsPerVolt != 0)
 868              		.loc 1 834 0
 869 0002 0F4B     		ldr	r3, .L86
 870 0004 1B88     		ldrh	r3, [r3]
 871 0006 9BB2     		uxth	r3, r3
 872 0008 33B1     		cbz	r3, .L83
 835:.\Generated_Source\PSoC5/ADC_SAR_2.c ****     {   /* Support obsolete method */
 836:.\Generated_Source\PSoC5/ADC_SAR_2.c ****         countsPer10Volt = (int32)ADC_SAR_2_countsPerVolt * 10;
 873              		.loc 1 836 0
 874 000a 0D4B     		ldr	r3, .L86
 875 000c 1C88     		ldrh	r4, [r3]
 876 000e 24B2     		sxth	r4, r4
 877 0010 04EB8404 		add	r4, r4, r4, lsl #2
 878 0014 6400     		lsls	r4, r4, #1
 879              	.LVL61:
 880 0016 01E0     		b	.L84
 881              	.LVL62:
 882              	.L83:
 837:.\Generated_Source\PSoC5/ADC_SAR_2.c ****     }
 838:.\Generated_Source\PSoC5/ADC_SAR_2.c ****     else
 839:.\Generated_Source\PSoC5/ADC_SAR_2.c ****     {
 840:.\Generated_Source\PSoC5/ADC_SAR_2.c ****         countsPer10Volt = ADC_SAR_2_countsPer10Volt;
 883              		.loc 1 840 0
 884 0018 0A4B     		ldr	r3, .L86+4
 885 001a 1C68     		ldr	r4, [r3]
 886              	.LVL63:
 887              	.L84:
 841:.\Generated_Source\PSoC5/ADC_SAR_2.c ****     }
 842:.\Generated_Source\PSoC5/ADC_SAR_2.c **** 
 843:.\Generated_Source\PSoC5/ADC_SAR_2.c ****     /* Subtract ADC offset */
 844:.\Generated_Source\PSoC5/ADC_SAR_2.c ****     adcCounts -= ADC_SAR_2_offset;
 888              		.loc 1 844 0
 889 001c 0A4B     		ldr	r3, .L86+8
 890 001e 1B88     		ldrh	r3, [r3]
 891 0020 C01A     		subs	r0, r0, r3
 892              	.LVL64:
 845:.\Generated_Source\PSoC5/ADC_SAR_2.c **** 
 846:.\Generated_Source\PSoC5/ADC_SAR_2.c ****     volts = ((float32)adcCounts * ADC_SAR_2_10V_COUNTS) / (float32)countsPer10Volt;
 893              		.loc 1 846 0
 894 0022 00B2     		sxth	r0, r0
 895 0024 FFF7FEFF 		bl	__aeabi_i2f
 896              	.LVL65:
 897 0028 0849     		ldr	r1, .L86+12
 898 002a FFF7FEFF 		bl	__aeabi_fmul
ARM GAS  C:\Users\lilu1\AppData\Local\Temp\ccJDXxzB.s 			page 33


 899              	.LVL66:
 900 002e 0546     		mov	r5, r0
 901 0030 2046     		mov	r0, r4
 902 0032 FFF7FEFF 		bl	__aeabi_i2f
 903              	.LVL67:
 904 0036 0146     		mov	r1, r0
 905 0038 2846     		mov	r0, r5
 906 003a FFF7FEFF 		bl	__aeabi_fdiv
 907              	.LVL68:
 847:.\Generated_Source\PSoC5/ADC_SAR_2.c **** 
 848:.\Generated_Source\PSoC5/ADC_SAR_2.c ****     return( volts );
 849:.\Generated_Source\PSoC5/ADC_SAR_2.c **** }
 908              		.loc 1 849 0
 909 003e 38BD     		pop	{r3, r4, r5, pc}
 910              	.LVL69:
 911              	.L87:
 912              		.align	2
 913              	.L86:
 914 0040 00000000 		.word	ADC_SAR_2_countsPerVolt
 915 0044 00000000 		.word	ADC_SAR_2_countsPer10Volt
 916 0048 00000000 		.word	ADC_SAR_2_offset
 917 004c 00002041 		.word	1092616192
 918              		.cfi_endproc
 919              	.LFE17:
 920              		.size	ADC_SAR_2_CountsTo_Volts, .-ADC_SAR_2_CountsTo_Volts
 921              		.comm	ADC_SAR_2_shift,2,2
 922              		.comm	ADC_SAR_2_countsPer10Volt,4,4
 923              		.comm	ADC_SAR_2_countsPerVolt,2,2
 924              		.comm	ADC_SAR_2_offset,2,2
 925              		.global	ADC_SAR_2_initVar
 926              		.bss
 927              		.set	.LANCHOR0,. + 0
 928              		.type	ADC_SAR_2_initVar, %object
 929              		.size	ADC_SAR_2_initVar, 1
 930              	ADC_SAR_2_initVar:
 931 0000 00       		.space	1
 932              		.text
 933              	.Letext0:
 934              		.file 2 ".\\Generated_Source\\PSoC5\\cytypes.h"
 935              		.file 3 ".\\Generated_Source\\PSoC5\\CyLib.h"
 936              		.file 4 ".\\Generated_Source\\PSoC5\\ADC_SAR_2_theACLK.h"