ARM GAS  C:\Users\lilu1\AppData\Local\Temp\cc9UQxiR.s 			page 1


   1              		.syntax unified
   2              		.cpu cortex-m3
   3              		.fpu softvfp
   4              		.eabi_attribute 20, 1
   5              		.eabi_attribute 21, 1
   6              		.eabi_attribute 23, 3
   7              		.eabi_attribute 24, 1
   8              		.eabi_attribute 25, 1
   9              		.eabi_attribute 26, 1
  10              		.eabi_attribute 30, 1
  11              		.eabi_attribute 34, 1
  12              		.eabi_attribute 18, 4
  13              		.thumb
  14              		.file	"cyfitter_cfg.c"
  15              		.text
  16              	.Ltext0:
  17              		.cfi_sections	.debug_frame
  18              		.section	.text.CyClockStartupError,"ax",%progbits
  19              		.align	2
  20              		.thumb
  21              		.thumb_func
  22              		.type	CyClockStartupError, %function
  23              	CyClockStartupError:
  24              	.LFB3:
  25              		.file 1 "Generated_Source\\PSoC5\\cyfitter_cfg.c"
   1:Generated_Source\PSoC5/cyfitter_cfg.c **** /*******************************************************************************
   2:Generated_Source\PSoC5/cyfitter_cfg.c **** * File Name: cyfitter_cfg.c
   3:Generated_Source\PSoC5/cyfitter_cfg.c **** * 
   4:Generated_Source\PSoC5/cyfitter_cfg.c **** * PSoC Creator  4.0
   5:Generated_Source\PSoC5/cyfitter_cfg.c **** *
   6:Generated_Source\PSoC5/cyfitter_cfg.c **** * Description:
   7:Generated_Source\PSoC5/cyfitter_cfg.c **** * This file contains device initialization code.
   8:Generated_Source\PSoC5/cyfitter_cfg.c **** * Except for the user defined sections in CyClockStartupError(), this file should not be modified.
   9:Generated_Source\PSoC5/cyfitter_cfg.c **** * This file is automatically generated by PSoC Creator.
  10:Generated_Source\PSoC5/cyfitter_cfg.c **** *
  11:Generated_Source\PSoC5/cyfitter_cfg.c **** ********************************************************************************
  12:Generated_Source\PSoC5/cyfitter_cfg.c **** * Copyright (c) 2007-2016 Cypress Semiconductor.  All rights reserved.
  13:Generated_Source\PSoC5/cyfitter_cfg.c **** * You may use this file only in accordance with the license, terms, conditions, 
  14:Generated_Source\PSoC5/cyfitter_cfg.c **** * disclaimers, and limitations in the end user license agreement accompanying 
  15:Generated_Source\PSoC5/cyfitter_cfg.c **** * the software package with which this file was provided.
  16:Generated_Source\PSoC5/cyfitter_cfg.c **** ********************************************************************************/
  17:Generated_Source\PSoC5/cyfitter_cfg.c **** 
  18:Generated_Source\PSoC5/cyfitter_cfg.c **** #include <string.h>
  19:Generated_Source\PSoC5/cyfitter_cfg.c **** #include "cytypes.h"
  20:Generated_Source\PSoC5/cyfitter_cfg.c **** #include "cydevice_trm.h"
  21:Generated_Source\PSoC5/cyfitter_cfg.c **** #include "cyfitter.h"
  22:Generated_Source\PSoC5/cyfitter_cfg.c **** #include "CyLib.h"
  23:Generated_Source\PSoC5/cyfitter_cfg.c **** #include "cyfitter_cfg.h"
  24:Generated_Source\PSoC5/cyfitter_cfg.c **** #include "cyapicallbacks.h"
  25:Generated_Source\PSoC5/cyfitter_cfg.c **** 
  26:Generated_Source\PSoC5/cyfitter_cfg.c **** #define CY_NEED_CYCLOCKSTARTUPERROR 1
  27:Generated_Source\PSoC5/cyfitter_cfg.c **** 
  28:Generated_Source\PSoC5/cyfitter_cfg.c **** 
  29:Generated_Source\PSoC5/cyfitter_cfg.c **** #if defined(__GNUC__) || defined(__ARMCC_VERSION)
  30:Generated_Source\PSoC5/cyfitter_cfg.c ****     #define CYPACKED 
  31:Generated_Source\PSoC5/cyfitter_cfg.c ****     #define CYPACKED_ATTR __attribute__ ((packed))
  32:Generated_Source\PSoC5/cyfitter_cfg.c ****     #define CYALIGNED __attribute__ ((aligned))
ARM GAS  C:\Users\lilu1\AppData\Local\Temp\cc9UQxiR.s 			page 2


  33:Generated_Source\PSoC5/cyfitter_cfg.c ****     #define CY_CFG_UNUSED __attribute__ ((unused))
  34:Generated_Source\PSoC5/cyfitter_cfg.c ****     #ifndef CY_CFG_SECTION
  35:Generated_Source\PSoC5/cyfitter_cfg.c ****         #define CY_CFG_SECTION __attribute__ ((section(".psocinit")))
  36:Generated_Source\PSoC5/cyfitter_cfg.c ****     #endif
  37:Generated_Source\PSoC5/cyfitter_cfg.c ****     
  38:Generated_Source\PSoC5/cyfitter_cfg.c ****     #if defined(__ARMCC_VERSION)
  39:Generated_Source\PSoC5/cyfitter_cfg.c ****         #define CY_CFG_MEMORY_BARRIER() __memory_changed()
  40:Generated_Source\PSoC5/cyfitter_cfg.c ****     #else
  41:Generated_Source\PSoC5/cyfitter_cfg.c ****         #define CY_CFG_MEMORY_BARRIER() __sync_synchronize()
  42:Generated_Source\PSoC5/cyfitter_cfg.c ****     #endif
  43:Generated_Source\PSoC5/cyfitter_cfg.c ****     
  44:Generated_Source\PSoC5/cyfitter_cfg.c **** #elif defined(__ICCARM__)
  45:Generated_Source\PSoC5/cyfitter_cfg.c ****     #include <intrinsics.h>
  46:Generated_Source\PSoC5/cyfitter_cfg.c **** 
  47:Generated_Source\PSoC5/cyfitter_cfg.c ****     #define CYPACKED __packed
  48:Generated_Source\PSoC5/cyfitter_cfg.c ****     #define CYPACKED_ATTR 
  49:Generated_Source\PSoC5/cyfitter_cfg.c ****     #define CYALIGNED _Pragma("data_alignment=4")
  50:Generated_Source\PSoC5/cyfitter_cfg.c ****     #define CY_CFG_UNUSED _Pragma("diag_suppress=Pe177")
  51:Generated_Source\PSoC5/cyfitter_cfg.c ****     #define CY_CFG_SECTION _Pragma("location=\".psocinit\"")
  52:Generated_Source\PSoC5/cyfitter_cfg.c ****     
  53:Generated_Source\PSoC5/cyfitter_cfg.c ****     #define CY_CFG_MEMORY_BARRIER() __DMB()
  54:Generated_Source\PSoC5/cyfitter_cfg.c ****     
  55:Generated_Source\PSoC5/cyfitter_cfg.c **** #else
  56:Generated_Source\PSoC5/cyfitter_cfg.c ****     #error Unsupported toolchain
  57:Generated_Source\PSoC5/cyfitter_cfg.c **** #endif
  58:Generated_Source\PSoC5/cyfitter_cfg.c **** 
  59:Generated_Source\PSoC5/cyfitter_cfg.c **** 
  60:Generated_Source\PSoC5/cyfitter_cfg.c **** CY_CFG_UNUSED
  61:Generated_Source\PSoC5/cyfitter_cfg.c **** static void CYMEMZERO(void *s, size_t n);
  62:Generated_Source\PSoC5/cyfitter_cfg.c **** CY_CFG_UNUSED
  63:Generated_Source\PSoC5/cyfitter_cfg.c **** static void CYMEMZERO(void *s, size_t n)
  64:Generated_Source\PSoC5/cyfitter_cfg.c **** {
  65:Generated_Source\PSoC5/cyfitter_cfg.c **** 	(void)memset(s, 0, n);
  66:Generated_Source\PSoC5/cyfitter_cfg.c **** }
  67:Generated_Source\PSoC5/cyfitter_cfg.c **** CY_CFG_UNUSED
  68:Generated_Source\PSoC5/cyfitter_cfg.c **** static void CYCONFIGCPY(void *dest, const void *src, size_t n);
  69:Generated_Source\PSoC5/cyfitter_cfg.c **** CY_CFG_UNUSED
  70:Generated_Source\PSoC5/cyfitter_cfg.c **** static void CYCONFIGCPY(void *dest, const void *src, size_t n)
  71:Generated_Source\PSoC5/cyfitter_cfg.c **** {
  72:Generated_Source\PSoC5/cyfitter_cfg.c **** 	(void)memcpy(dest, src, n);
  73:Generated_Source\PSoC5/cyfitter_cfg.c **** }
  74:Generated_Source\PSoC5/cyfitter_cfg.c **** CY_CFG_UNUSED
  75:Generated_Source\PSoC5/cyfitter_cfg.c **** static void CYCONFIGCPYCODE(void *dest, const void *src, size_t n);
  76:Generated_Source\PSoC5/cyfitter_cfg.c **** CY_CFG_UNUSED
  77:Generated_Source\PSoC5/cyfitter_cfg.c **** static void CYCONFIGCPYCODE(void *dest, const void *src, size_t n)
  78:Generated_Source\PSoC5/cyfitter_cfg.c **** {
  79:Generated_Source\PSoC5/cyfitter_cfg.c **** 	(void)memcpy(dest, src, n);
  80:Generated_Source\PSoC5/cyfitter_cfg.c **** }
  81:Generated_Source\PSoC5/cyfitter_cfg.c **** 
  82:Generated_Source\PSoC5/cyfitter_cfg.c **** 
  83:Generated_Source\PSoC5/cyfitter_cfg.c **** 
  84:Generated_Source\PSoC5/cyfitter_cfg.c **** 
  85:Generated_Source\PSoC5/cyfitter_cfg.c **** /* Clock startup error codes                                                   */
  86:Generated_Source\PSoC5/cyfitter_cfg.c **** #define CYCLOCKSTART_NO_ERROR    0u
  87:Generated_Source\PSoC5/cyfitter_cfg.c **** #define CYCLOCKSTART_XTAL_ERROR  1u
  88:Generated_Source\PSoC5/cyfitter_cfg.c **** #define CYCLOCKSTART_32KHZ_ERROR 2u
  89:Generated_Source\PSoC5/cyfitter_cfg.c **** #define CYCLOCKSTART_PLL_ERROR   3u
ARM GAS  C:\Users\lilu1\AppData\Local\Temp\cc9UQxiR.s 			page 3


  90:Generated_Source\PSoC5/cyfitter_cfg.c **** 
  91:Generated_Source\PSoC5/cyfitter_cfg.c **** 
  92:Generated_Source\PSoC5/cyfitter_cfg.c **** #ifdef CY_NEED_CYCLOCKSTARTUPERROR
  93:Generated_Source\PSoC5/cyfitter_cfg.c **** /*******************************************************************************
  94:Generated_Source\PSoC5/cyfitter_cfg.c **** * Function Name: CyClockStartupError
  95:Generated_Source\PSoC5/cyfitter_cfg.c **** ********************************************************************************
  96:Generated_Source\PSoC5/cyfitter_cfg.c **** * Summary:
  97:Generated_Source\PSoC5/cyfitter_cfg.c **** *  If an error is encountered during clock configuration (crystal startup error,
  98:Generated_Source\PSoC5/cyfitter_cfg.c **** *  PLL lock error, etc.), the system will end up here.  Unless reimplemented by
  99:Generated_Source\PSoC5/cyfitter_cfg.c **** *  the customer, this function will stop in an infinite loop.
 100:Generated_Source\PSoC5/cyfitter_cfg.c **** *
 101:Generated_Source\PSoC5/cyfitter_cfg.c **** * Parameters:
 102:Generated_Source\PSoC5/cyfitter_cfg.c **** *   void
 103:Generated_Source\PSoC5/cyfitter_cfg.c **** *
 104:Generated_Source\PSoC5/cyfitter_cfg.c **** * Return:
 105:Generated_Source\PSoC5/cyfitter_cfg.c **** *   void
 106:Generated_Source\PSoC5/cyfitter_cfg.c **** *
 107:Generated_Source\PSoC5/cyfitter_cfg.c **** *******************************************************************************/
 108:Generated_Source\PSoC5/cyfitter_cfg.c **** CY_CFG_UNUSED
 109:Generated_Source\PSoC5/cyfitter_cfg.c **** static void CyClockStartupError(uint8 errorCode);
 110:Generated_Source\PSoC5/cyfitter_cfg.c **** CY_CFG_UNUSED
 111:Generated_Source\PSoC5/cyfitter_cfg.c **** static void CyClockStartupError(uint8 errorCode)
 112:Generated_Source\PSoC5/cyfitter_cfg.c **** {
  26              		.loc 1 112 0
  27              		.cfi_startproc
  28              		@ Volatile: function does not return.
  29              		@ args = 0, pretend = 0, frame = 0
  30              		@ frame_needed = 0, uses_anonymous_args = 0
  31              		@ link register save eliminated.
  32              	.LVL0:
  33              	.L2:
 113:Generated_Source\PSoC5/cyfitter_cfg.c ****     /* To remove the compiler warning if errorCode not used.                */
 114:Generated_Source\PSoC5/cyfitter_cfg.c ****     errorCode = errorCode;
 115:Generated_Source\PSoC5/cyfitter_cfg.c **** 
 116:Generated_Source\PSoC5/cyfitter_cfg.c ****     /* If we have a clock startup error (bad MHz crystal, PLL lock, etc.),  */
 117:Generated_Source\PSoC5/cyfitter_cfg.c ****     /* we will end up here to allow the customer to implement something to  */
 118:Generated_Source\PSoC5/cyfitter_cfg.c ****     /* deal with the clock condition.                                       */
 119:Generated_Source\PSoC5/cyfitter_cfg.c **** 
 120:Generated_Source\PSoC5/cyfitter_cfg.c **** #ifdef CY_CFG_CLOCK_STARTUP_ERROR_CALLBACK
 121:Generated_Source\PSoC5/cyfitter_cfg.c **** 	CY_CFG_Clock_Startup_ErrorCallback();
 122:Generated_Source\PSoC5/cyfitter_cfg.c **** #else
 123:Generated_Source\PSoC5/cyfitter_cfg.c **** 	/*  If not using CY_CFG_CLOCK_STARTUP_ERROR_CALLBACK, place your clock startup code here. */
 124:Generated_Source\PSoC5/cyfitter_cfg.c ****     /* `#START CyClockStartupError` */
 125:Generated_Source\PSoC5/cyfitter_cfg.c **** 
 126:Generated_Source\PSoC5/cyfitter_cfg.c ****     /* If we have a clock startup error (bad MHz crystal, PLL lock, etc.),  */
 127:Generated_Source\PSoC5/cyfitter_cfg.c ****     /* we will end up here to allow the customer to implement something to  */
 128:Generated_Source\PSoC5/cyfitter_cfg.c ****     /* deal with the clock condition.                                       */
 129:Generated_Source\PSoC5/cyfitter_cfg.c **** 
 130:Generated_Source\PSoC5/cyfitter_cfg.c ****     /* `#END` */
 131:Generated_Source\PSoC5/cyfitter_cfg.c **** 
 132:Generated_Source\PSoC5/cyfitter_cfg.c ****     /* If nothing else, stop here since the clocks have not started         */
 133:Generated_Source\PSoC5/cyfitter_cfg.c ****     /* correctly.                                                           */
 134:Generated_Source\PSoC5/cyfitter_cfg.c ****     while(1) {}
  34              		.loc 1 134 0 discriminator 1
  35 0000 FEE7     		b	.L2
  36              		.cfi_endproc
  37              	.LFE3:
ARM GAS  C:\Users\lilu1\AppData\Local\Temp\cc9UQxiR.s 			page 4


  38              		.size	CyClockStartupError, .-CyClockStartupError
  39 0002 00BF     		.section	.text.cfg_write_bytes32,"ax",%progbits
  40              		.align	2
  41              		.thumb
  42              		.thumb_func
  43              		.type	cfg_write_bytes32, %function
  44              	cfg_write_bytes32:
  45              	.LFB4:
 135:Generated_Source\PSoC5/cyfitter_cfg.c **** #endif /* CY_CFG_CLOCK_STARTUP_ERROR_CALLBACK */ 
 136:Generated_Source\PSoC5/cyfitter_cfg.c **** }
 137:Generated_Source\PSoC5/cyfitter_cfg.c **** #endif
 138:Generated_Source\PSoC5/cyfitter_cfg.c **** 
 139:Generated_Source\PSoC5/cyfitter_cfg.c **** #define CY_CFG_BASE_ADDR_COUNT 43u
 140:Generated_Source\PSoC5/cyfitter_cfg.c **** CYPACKED typedef struct
 141:Generated_Source\PSoC5/cyfitter_cfg.c **** {
 142:Generated_Source\PSoC5/cyfitter_cfg.c **** 	uint8 offset;
 143:Generated_Source\PSoC5/cyfitter_cfg.c **** 	uint8 value;
 144:Generated_Source\PSoC5/cyfitter_cfg.c **** } CYPACKED_ATTR cy_cfg_addrvalue_t;
 145:Generated_Source\PSoC5/cyfitter_cfg.c **** 
 146:Generated_Source\PSoC5/cyfitter_cfg.c **** #define cy_cfg_addr_table ((const uint32 CYFAR *)0x48000000u)
 147:Generated_Source\PSoC5/cyfitter_cfg.c **** #define cy_cfg_data_table ((const cy_cfg_addrvalue_t CYFAR *)0x480000ACu)
 148:Generated_Source\PSoC5/cyfitter_cfg.c **** 
 149:Generated_Source\PSoC5/cyfitter_cfg.c **** /* IOPORT_7 Address: CYDEV_PRTDSI_PRT12_BASE Size (bytes): 6 */
 150:Generated_Source\PSoC5/cyfitter_cfg.c **** #define BS_IOPORT_7_VAL ((const uint8 CYFAR *)0x48001378u)
 151:Generated_Source\PSoC5/cyfitter_cfg.c **** 
 152:Generated_Source\PSoC5/cyfitter_cfg.c **** /* UDB_1_5_0_CONFIG Address: CYDEV_UCFG_B0_P0_U0_BASE Size (bytes): 128 */
 153:Generated_Source\PSoC5/cyfitter_cfg.c **** #define BS_UDB_1_5_0_CONFIG_VAL ((const uint8 CYFAR *)0x48001380u)
 154:Generated_Source\PSoC5/cyfitter_cfg.c **** 
 155:Generated_Source\PSoC5/cyfitter_cfg.c **** /* UDB_0_0_1_CONFIG Address: CYDEV_UCFG_B1_P5_U1_BASE Size (bytes): 128 */
 156:Generated_Source\PSoC5/cyfitter_cfg.c **** #define BS_UDB_0_0_1_CONFIG_VAL ((const uint8 CYFAR *)0x48001400u)
 157:Generated_Source\PSoC5/cyfitter_cfg.c **** 
 158:Generated_Source\PSoC5/cyfitter_cfg.c **** /* IOPINS0_0 Address: CYREG_PRT0_DM0 Size (bytes): 8 */
 159:Generated_Source\PSoC5/cyfitter_cfg.c **** #define BS_IOPINS0_0_VAL ((const uint8 CYFAR *)0x48001480u)
 160:Generated_Source\PSoC5/cyfitter_cfg.c **** 
 161:Generated_Source\PSoC5/cyfitter_cfg.c **** /* IOPINS0_7 Address: CYREG_PRT12_DR Size (bytes): 10 */
 162:Generated_Source\PSoC5/cyfitter_cfg.c **** #define BS_IOPINS0_7_VAL ((const uint8 CYFAR *)0x48001488u)
 163:Generated_Source\PSoC5/cyfitter_cfg.c **** 
 164:Generated_Source\PSoC5/cyfitter_cfg.c **** /* IOPINS0_8 Address: CYREG_PRT15_DR Size (bytes): 10 */
 165:Generated_Source\PSoC5/cyfitter_cfg.c **** #define BS_IOPINS0_8_VAL ((const uint8 CYFAR *)0x48001494u)
 166:Generated_Source\PSoC5/cyfitter_cfg.c **** 
 167:Generated_Source\PSoC5/cyfitter_cfg.c **** /* IOPINS0_1 Address: CYREG_PRT1_DR Size (bytes): 10 */
 168:Generated_Source\PSoC5/cyfitter_cfg.c **** #define BS_IOPINS0_1_VAL ((const uint8 CYFAR *)0x480014A0u)
 169:Generated_Source\PSoC5/cyfitter_cfg.c **** 
 170:Generated_Source\PSoC5/cyfitter_cfg.c **** /* IOPINS0_2 Address: CYREG_PRT2_DM0 Size (bytes): 8 */
 171:Generated_Source\PSoC5/cyfitter_cfg.c **** #define BS_IOPINS0_2_VAL ((const uint8 CYFAR *)0x480014ACu)
 172:Generated_Source\PSoC5/cyfitter_cfg.c **** 
 173:Generated_Source\PSoC5/cyfitter_cfg.c **** /* IOPINS0_4 Address: CYREG_PRT4_DM0 Size (bytes): 8 */
 174:Generated_Source\PSoC5/cyfitter_cfg.c **** #define BS_IOPINS0_4_VAL ((const uint8 CYFAR *)0x480014B4u)
 175:Generated_Source\PSoC5/cyfitter_cfg.c **** 
 176:Generated_Source\PSoC5/cyfitter_cfg.c **** /* IOPINS0_5 Address: CYREG_PRT5_DR Size (bytes): 10 */
 177:Generated_Source\PSoC5/cyfitter_cfg.c **** #define BS_IOPINS0_5_VAL ((const uint8 CYFAR *)0x480014BCu)
 178:Generated_Source\PSoC5/cyfitter_cfg.c **** 
 179:Generated_Source\PSoC5/cyfitter_cfg.c **** /* IOPINS0_6 Address: CYREG_PRT6_DM0 Size (bytes): 8 */
 180:Generated_Source\PSoC5/cyfitter_cfg.c **** #define BS_IOPINS0_6_VAL ((const uint8 CYFAR *)0x480014C8u)
 181:Generated_Source\PSoC5/cyfitter_cfg.c **** 
 182:Generated_Source\PSoC5/cyfitter_cfg.c **** /* CYDEV_CLKDIST_ACFG0_CFG0 Address: CYREG_CLKDIST_ACFG0_CFG0 Size (bytes): 4 */
 183:Generated_Source\PSoC5/cyfitter_cfg.c **** #define BS_CYDEV_CLKDIST_ACFG0_CFG0_VAL ((const uint8 CYFAR *)0x480014D0u)
ARM GAS  C:\Users\lilu1\AppData\Local\Temp\cc9UQxiR.s 			page 5


 184:Generated_Source\PSoC5/cyfitter_cfg.c **** 
 185:Generated_Source\PSoC5/cyfitter_cfg.c **** 
 186:Generated_Source\PSoC5/cyfitter_cfg.c **** /*******************************************************************************
 187:Generated_Source\PSoC5/cyfitter_cfg.c **** * Function Name: cfg_write_bytes32
 188:Generated_Source\PSoC5/cyfitter_cfg.c **** ********************************************************************************
 189:Generated_Source\PSoC5/cyfitter_cfg.c **** * Summary:
 190:Generated_Source\PSoC5/cyfitter_cfg.c **** *  This function is used for setting up the chip configuration areas that
 191:Generated_Source\PSoC5/cyfitter_cfg.c **** *  contain relatively sparse data.
 192:Generated_Source\PSoC5/cyfitter_cfg.c **** *
 193:Generated_Source\PSoC5/cyfitter_cfg.c **** * Parameters:
 194:Generated_Source\PSoC5/cyfitter_cfg.c **** *   void
 195:Generated_Source\PSoC5/cyfitter_cfg.c **** *
 196:Generated_Source\PSoC5/cyfitter_cfg.c **** * Return:
 197:Generated_Source\PSoC5/cyfitter_cfg.c **** *   void
 198:Generated_Source\PSoC5/cyfitter_cfg.c **** *
 199:Generated_Source\PSoC5/cyfitter_cfg.c **** *******************************************************************************/
 200:Generated_Source\PSoC5/cyfitter_cfg.c **** static void cfg_write_bytes32(const uint32 addr_table[], const cy_cfg_addrvalue_t data_table[]);
 201:Generated_Source\PSoC5/cyfitter_cfg.c **** static void cfg_write_bytes32(const uint32 addr_table[], const cy_cfg_addrvalue_t data_table[])
 202:Generated_Source\PSoC5/cyfitter_cfg.c **** {
  46              		.loc 1 202 0
  47              		.cfi_startproc
  48              		@ args = 0, pretend = 0, frame = 0
  49              		@ frame_needed = 0, uses_anonymous_args = 0
  50              		@ link register save eliminated.
  51              	.LVL1:
  52 0000 F0B4     		push	{r4, r5, r6, r7}
  53              		.cfi_def_cfa_offset 16
  54              		.cfi_offset 4, -16
  55              		.cfi_offset 5, -12
  56              		.cfi_offset 6, -8
  57              		.cfi_offset 7, -4
  58              	.LVL2:
 203:Generated_Source\PSoC5/cyfitter_cfg.c **** 	/* For 32-bit little-endian architectures */
 204:Generated_Source\PSoC5/cyfitter_cfg.c **** 	uint32 i, j = 0u;
  59              		.loc 1 204 0
  60 0002 0022     		movs	r2, #0
 205:Generated_Source\PSoC5/cyfitter_cfg.c **** 	for (i = 0u; i < CY_CFG_BASE_ADDR_COUNT; i++)
  61              		.loc 1 205 0
  62 0004 1746     		mov	r7, r2
  63 0006 11E0     		b	.L4
  64              	.LVL3:
  65              	.L7:
  66              	.LBB2:
 206:Generated_Source\PSoC5/cyfitter_cfg.c **** 	{
 207:Generated_Source\PSoC5/cyfitter_cfg.c **** 		uint32 baseAddr = addr_table[i];
  67              		.loc 1 207 0
  68 0008 50F82760 		ldr	r6, [r0, r7, lsl #2]
  69              	.LVL4:
 208:Generated_Source\PSoC5/cyfitter_cfg.c **** 		uint8 count = (uint8)baseAddr;
  70              		.loc 1 208 0
  71 000c F3B2     		uxtb	r3, r6
  72              	.LVL5:
 209:Generated_Source\PSoC5/cyfitter_cfg.c **** 		baseAddr &= 0xFFFFFF00u;
  73              		.loc 1 209 0
  74 000e 26F0FF06 		bic	r6, r6, #255
  75              	.LVL6:
 210:Generated_Source\PSoC5/cyfitter_cfg.c **** 		while (count != 0u)
ARM GAS  C:\Users\lilu1\AppData\Local\Temp\cc9UQxiR.s 			page 6


  76              		.loc 1 210 0
  77 0012 08E0     		b	.L5
  78              	.L6:
 211:Generated_Source\PSoC5/cyfitter_cfg.c **** 		{
 212:Generated_Source\PSoC5/cyfitter_cfg.c **** 			CY_SET_XTND_REG8((void CYFAR *)(baseAddr + data_table[j].offset), data_table[j].value);
  79              		.loc 1 212 0
  80 0014 01EB4205 		add	r5, r1, r2, lsl #1
  81 0018 11F81240 		ldrb	r4, [r1, r2, lsl #1]	@ zero_extendqisi2
  82 001c 6D78     		ldrb	r5, [r5, #1]	@ zero_extendqisi2
  83 001e A555     		strb	r5, [r4, r6]
 213:Generated_Source\PSoC5/cyfitter_cfg.c **** 			j++;
  84              		.loc 1 213 0
  85 0020 0132     		adds	r2, r2, #1
  86              	.LVL7:
 214:Generated_Source\PSoC5/cyfitter_cfg.c **** 			count--;
  87              		.loc 1 214 0
  88 0022 013B     		subs	r3, r3, #1
  89              	.LVL8:
  90 0024 DBB2     		uxtb	r3, r3
  91              	.LVL9:
  92              	.L5:
 210:Generated_Source\PSoC5/cyfitter_cfg.c **** 		{
  93              		.loc 1 210 0
  94 0026 002B     		cmp	r3, #0
  95 0028 F4D1     		bne	.L6
  96              	.LBE2:
 205:Generated_Source\PSoC5/cyfitter_cfg.c **** 	{
  97              		.loc 1 205 0 discriminator 2
  98 002a 0137     		adds	r7, r7, #1
  99              	.LVL10:
 100              	.L4:
 205:Generated_Source\PSoC5/cyfitter_cfg.c **** 	{
 101              		.loc 1 205 0 is_stmt 0 discriminator 1
 102 002c 2A2F     		cmp	r7, #42
 103 002e EBD9     		bls	.L7
 215:Generated_Source\PSoC5/cyfitter_cfg.c **** 		}
 216:Generated_Source\PSoC5/cyfitter_cfg.c **** 	}
 217:Generated_Source\PSoC5/cyfitter_cfg.c **** }
 104              		.loc 1 217 0 is_stmt 1
 105 0030 F0BC     		pop	{r4, r5, r6, r7}
 106              		.cfi_restore 7
 107              		.cfi_restore 6
 108              		.cfi_restore 5
 109              		.cfi_restore 4
 110              		.cfi_def_cfa_offset 0
 111              	.LVL11:
 112 0032 7047     		bx	lr
 113              		.cfi_endproc
 114              	.LFE4:
 115              		.size	cfg_write_bytes32, .-cfg_write_bytes32
 116              		.section	.text.CYMEMZERO,"ax",%progbits
 117              		.align	2
 118              		.thumb
 119              		.thumb_func
 120              		.type	CYMEMZERO, %function
 121              	CYMEMZERO:
 122              	.LFB0:
ARM GAS  C:\Users\lilu1\AppData\Local\Temp\cc9UQxiR.s 			page 7


  64:Generated_Source\PSoC5/cyfitter_cfg.c **** 	(void)memset(s, 0, n);
 123              		.loc 1 64 0
 124              		.cfi_startproc
 125              		@ args = 0, pretend = 0, frame = 0
 126              		@ frame_needed = 0, uses_anonymous_args = 0
 127              	.LVL12:
 128 0000 08B5     		push	{r3, lr}
 129              		.cfi_def_cfa_offset 8
 130              		.cfi_offset 3, -8
 131              		.cfi_offset 14, -4
 132 0002 0A46     		mov	r2, r1
  65:Generated_Source\PSoC5/cyfitter_cfg.c **** }
 133              		.loc 1 65 0
 134 0004 0021     		movs	r1, #0
 135              	.LVL13:
 136 0006 FFF7FEFF 		bl	memset
 137              	.LVL14:
 138 000a 08BD     		pop	{r3, pc}
 139              		.cfi_endproc
 140              	.LFE0:
 141              		.size	CYMEMZERO, .-CYMEMZERO
 142              		.section	.text.AnalogSetDefault,"ax",%progbits
 143              		.align	2
 144              		.thumb
 145              		.thumb_func
 146              		.type	AnalogSetDefault, %function
 147              	AnalogSetDefault:
 148              	.LFB6:
 218:Generated_Source\PSoC5/cyfitter_cfg.c **** 
 219:Generated_Source\PSoC5/cyfitter_cfg.c **** /*******************************************************************************
 220:Generated_Source\PSoC5/cyfitter_cfg.c **** * Function Name: ClockSetup
 221:Generated_Source\PSoC5/cyfitter_cfg.c **** ********************************************************************************
 222:Generated_Source\PSoC5/cyfitter_cfg.c **** *
 223:Generated_Source\PSoC5/cyfitter_cfg.c **** * Summary:
 224:Generated_Source\PSoC5/cyfitter_cfg.c **** *  Performs the initialization of all of the clocks in the device based on the
 225:Generated_Source\PSoC5/cyfitter_cfg.c **** *  settings in the Clock tab of the DWR.  This includes enabling the requested
 226:Generated_Source\PSoC5/cyfitter_cfg.c **** *  clocks and setting the necessary dividers to produce the desired frequency. 
 227:Generated_Source\PSoC5/cyfitter_cfg.c **** *
 228:Generated_Source\PSoC5/cyfitter_cfg.c **** * Parameters:
 229:Generated_Source\PSoC5/cyfitter_cfg.c **** *  void
 230:Generated_Source\PSoC5/cyfitter_cfg.c **** *
 231:Generated_Source\PSoC5/cyfitter_cfg.c **** * Return:
 232:Generated_Source\PSoC5/cyfitter_cfg.c **** *  void
 233:Generated_Source\PSoC5/cyfitter_cfg.c **** *
 234:Generated_Source\PSoC5/cyfitter_cfg.c **** *******************************************************************************/
 235:Generated_Source\PSoC5/cyfitter_cfg.c **** static void ClockSetup(void);
 236:Generated_Source\PSoC5/cyfitter_cfg.c **** static void ClockSetup(void)
 237:Generated_Source\PSoC5/cyfitter_cfg.c **** {
 238:Generated_Source\PSoC5/cyfitter_cfg.c **** 	uint32 timeout;
 239:Generated_Source\PSoC5/cyfitter_cfg.c **** 	uint8 pllLock;
 240:Generated_Source\PSoC5/cyfitter_cfg.c **** 
 241:Generated_Source\PSoC5/cyfitter_cfg.c **** 
 242:Generated_Source\PSoC5/cyfitter_cfg.c **** 	/* Configure Digital Clocks based on settings from Clock DWR */
 243:Generated_Source\PSoC5/cyfitter_cfg.c **** 	CY_SET_XTND_REG16((void CYFAR *)(CYREG_CLKDIST_DCFG0_CFG0), 0x000Eu);
 244:Generated_Source\PSoC5/cyfitter_cfg.c **** 	CY_SET_XTND_REG8((void CYFAR *)(CYREG_CLKDIST_DCFG0_CFG0 + 0x2u), 0x18u);
 245:Generated_Source\PSoC5/cyfitter_cfg.c **** 	CY_SET_XTND_REG16((void CYFAR *)(CYREG_CLKDIST_DCFG1_CFG0), 0x000Eu);
 246:Generated_Source\PSoC5/cyfitter_cfg.c **** 	CY_SET_XTND_REG8((void CYFAR *)(CYREG_CLKDIST_DCFG1_CFG0 + 0x2u), 0x18u);
ARM GAS  C:\Users\lilu1\AppData\Local\Temp\cc9UQxiR.s 			page 8


 247:Generated_Source\PSoC5/cyfitter_cfg.c **** 	CY_SET_XTND_REG16((void CYFAR *)(CYREG_CLKDIST_DCFG2_CFG0), 0x0033u);
 248:Generated_Source\PSoC5/cyfitter_cfg.c **** 	CY_SET_XTND_REG8((void CYFAR *)(CYREG_CLKDIST_DCFG2_CFG0 + 0x2u), 0x18u);
 249:Generated_Source\PSoC5/cyfitter_cfg.c **** 	CY_SET_XTND_REG16((void CYFAR *)(CYREG_CLKDIST_DCFG3_CFG0), 0x0033u);
 250:Generated_Source\PSoC5/cyfitter_cfg.c **** 	CY_SET_XTND_REG8((void CYFAR *)(CYREG_CLKDIST_DCFG3_CFG0 + 0x2u), 0x18u);
 251:Generated_Source\PSoC5/cyfitter_cfg.c **** 	CY_SET_XTND_REG16((void CYFAR *)(CYREG_CLKDIST_DCFG4_CFG0), 0x0033u);
 252:Generated_Source\PSoC5/cyfitter_cfg.c **** 	CY_SET_XTND_REG8((void CYFAR *)(CYREG_CLKDIST_DCFG4_CFG0 + 0x2u), 0x18u);
 253:Generated_Source\PSoC5/cyfitter_cfg.c **** 	CY_SET_XTND_REG16((void CYFAR *)(CYREG_CLKDIST_DCFG5_CFG0), 0x095Fu);
 254:Generated_Source\PSoC5/cyfitter_cfg.c **** 	CY_SET_XTND_REG8((void CYFAR *)(CYREG_CLKDIST_DCFG5_CFG0 + 0x2u), 0x18u);
 255:Generated_Source\PSoC5/cyfitter_cfg.c **** 	CY_SET_XTND_REG16((void CYFAR *)(CYREG_CLKDIST_DCFG6_CFG0), 0x095Fu);
 256:Generated_Source\PSoC5/cyfitter_cfg.c **** 	CY_SET_XTND_REG8((void CYFAR *)(CYREG_CLKDIST_DCFG6_CFG0 + 0x2u), 0x18u);
 257:Generated_Source\PSoC5/cyfitter_cfg.c **** 	CY_SET_XTND_REG16((void CYFAR *)(CYREG_CLKDIST_DCFG7_CFG0), 0x095Fu);
 258:Generated_Source\PSoC5/cyfitter_cfg.c **** 	CY_SET_XTND_REG8((void CYFAR *)(CYREG_CLKDIST_DCFG7_CFG0 + 0x2u), 0x18u);
 259:Generated_Source\PSoC5/cyfitter_cfg.c **** 
 260:Generated_Source\PSoC5/cyfitter_cfg.c **** 	/* Configure Analog Clocks based on settings from Clock DWR */
 261:Generated_Source\PSoC5/cyfitter_cfg.c **** 	CYCONFIGCPY((void CYFAR *)(CYREG_CLKDIST_ACFG0_CFG0), (const void CYFAR *)(BS_CYDEV_CLKDIST_ACFG0_
 262:Generated_Source\PSoC5/cyfitter_cfg.c **** 
 263:Generated_Source\PSoC5/cyfitter_cfg.c **** 	/* Configure ILO based on settings from Clock DWR */
 264:Generated_Source\PSoC5/cyfitter_cfg.c **** 	CY_SET_XTND_REG8((void CYFAR *)(CYREG_SLOWCLK_ILO_CR0), 0x06u);
 265:Generated_Source\PSoC5/cyfitter_cfg.c **** 
 266:Generated_Source\PSoC5/cyfitter_cfg.c **** 	/* Configure IMO based on settings from Clock DWR */
 267:Generated_Source\PSoC5/cyfitter_cfg.c **** 	CY_SET_XTND_REG8((void CYFAR *)(CYREG_FASTCLK_IMO_CR), 0x52u);
 268:Generated_Source\PSoC5/cyfitter_cfg.c **** 	CY_SET_XTND_REG8((void CYFAR *)(CYREG_IMO_TR1), (CY_GET_XTND_REG8((void CYFAR *)CYREG_FLSHID_CUST_
 269:Generated_Source\PSoC5/cyfitter_cfg.c **** 
 270:Generated_Source\PSoC5/cyfitter_cfg.c **** 	/* Configure PLL based on settings from Clock DWR */
 271:Generated_Source\PSoC5/cyfitter_cfg.c **** 	CY_SET_XTND_REG16((void CYFAR *)(CYREG_FASTCLK_PLL_P), 0x0708u);
 272:Generated_Source\PSoC5/cyfitter_cfg.c **** 	CY_SET_XTND_REG16((void CYFAR *)(CYREG_FASTCLK_PLL_CFG0), 0x1251u);
 273:Generated_Source\PSoC5/cyfitter_cfg.c **** 	/* Wait up to 250us for the PLL to lock */
 274:Generated_Source\PSoC5/cyfitter_cfg.c **** 	pllLock = 0u;
 275:Generated_Source\PSoC5/cyfitter_cfg.c **** 	for (timeout = 250u / 10u; (timeout > 0u) && (pllLock != 0x03u); timeout--)
 276:Generated_Source\PSoC5/cyfitter_cfg.c **** 	{ 
 277:Generated_Source\PSoC5/cyfitter_cfg.c **** 		pllLock = 0x03u & ((uint8)((uint8)pllLock << 1) | ((CY_GET_XTND_REG8((void CYFAR *)CYREG_FASTCLK_
 278:Generated_Source\PSoC5/cyfitter_cfg.c **** 		CyDelayCycles(10u * 48u); /* Delay 10us based on 48MHz clock */
 279:Generated_Source\PSoC5/cyfitter_cfg.c **** 	}
 280:Generated_Source\PSoC5/cyfitter_cfg.c **** 	/* If we ran out of time the PLL didn't lock so go to the error function */
 281:Generated_Source\PSoC5/cyfitter_cfg.c **** 	if (timeout == 0u)
 282:Generated_Source\PSoC5/cyfitter_cfg.c **** 	{
 283:Generated_Source\PSoC5/cyfitter_cfg.c **** 		CyClockStartupError(CYCLOCKSTART_PLL_ERROR);
 284:Generated_Source\PSoC5/cyfitter_cfg.c **** 	}
 285:Generated_Source\PSoC5/cyfitter_cfg.c **** 
 286:Generated_Source\PSoC5/cyfitter_cfg.c **** 	/* Configure Bus/Master Clock based on settings from Clock DWR */
 287:Generated_Source\PSoC5/cyfitter_cfg.c **** 	CY_SET_XTND_REG16((void CYFAR *)(CYREG_CLKDIST_MSTR0), 0x0100u);
 288:Generated_Source\PSoC5/cyfitter_cfg.c **** 	CY_SET_XTND_REG8((void CYFAR *)(CYREG_CLKDIST_MSTR0), 0x07u);
 289:Generated_Source\PSoC5/cyfitter_cfg.c **** 	CY_SET_XTND_REG8((void CYFAR *)(CYREG_CLKDIST_BCFG0), 0x00u);
 290:Generated_Source\PSoC5/cyfitter_cfg.c **** 	CY_SET_XTND_REG8((void CYFAR *)(CYREG_CLKDIST_BCFG2), 0x48u);
 291:Generated_Source\PSoC5/cyfitter_cfg.c **** 	CY_SET_XTND_REG8((void CYFAR *)(CYREG_CLKDIST_MSTR0), 0x00u);
 292:Generated_Source\PSoC5/cyfitter_cfg.c **** 
 293:Generated_Source\PSoC5/cyfitter_cfg.c **** 	/* Configure USB Clock based on settings from Clock DWR */
 294:Generated_Source\PSoC5/cyfitter_cfg.c **** 	CY_SET_XTND_REG8((void CYFAR *)(CYREG_CLKDIST_UCFG), 0x00u);
 295:Generated_Source\PSoC5/cyfitter_cfg.c **** 	CY_SET_XTND_REG8((void CYFAR *)(CYREG_CLKDIST_LD), 0x02u);
 296:Generated_Source\PSoC5/cyfitter_cfg.c **** 
 297:Generated_Source\PSoC5/cyfitter_cfg.c **** 	CY_SET_XTND_REG8((void CYFAR *)(CYREG_PM_ACT_CFG2), ((CY_GET_XTND_REG8((void CYFAR *)CYREG_PM_ACT_
 298:Generated_Source\PSoC5/cyfitter_cfg.c **** }
 299:Generated_Source\PSoC5/cyfitter_cfg.c **** 
 300:Generated_Source\PSoC5/cyfitter_cfg.c **** 
 301:Generated_Source\PSoC5/cyfitter_cfg.c **** /* Analog API Functions */
 302:Generated_Source\PSoC5/cyfitter_cfg.c **** 
 303:Generated_Source\PSoC5/cyfitter_cfg.c **** 
ARM GAS  C:\Users\lilu1\AppData\Local\Temp\cc9UQxiR.s 			page 9


 304:Generated_Source\PSoC5/cyfitter_cfg.c **** /*******************************************************************************
 305:Generated_Source\PSoC5/cyfitter_cfg.c **** * Function Name: AnalogSetDefault
 306:Generated_Source\PSoC5/cyfitter_cfg.c **** ********************************************************************************
 307:Generated_Source\PSoC5/cyfitter_cfg.c **** *
 308:Generated_Source\PSoC5/cyfitter_cfg.c **** * Summary:
 309:Generated_Source\PSoC5/cyfitter_cfg.c **** *  Sets up the analog portions of the chip to default values based on chip
 310:Generated_Source\PSoC5/cyfitter_cfg.c **** *  configuration options from the project.
 311:Generated_Source\PSoC5/cyfitter_cfg.c **** *
 312:Generated_Source\PSoC5/cyfitter_cfg.c **** * Parameters:
 313:Generated_Source\PSoC5/cyfitter_cfg.c **** *  void
 314:Generated_Source\PSoC5/cyfitter_cfg.c **** *
 315:Generated_Source\PSoC5/cyfitter_cfg.c **** * Return:
 316:Generated_Source\PSoC5/cyfitter_cfg.c **** *  void
 317:Generated_Source\PSoC5/cyfitter_cfg.c **** *
 318:Generated_Source\PSoC5/cyfitter_cfg.c **** *******************************************************************************/
 319:Generated_Source\PSoC5/cyfitter_cfg.c **** static void AnalogSetDefault(void);
 320:Generated_Source\PSoC5/cyfitter_cfg.c **** static void AnalogSetDefault(void)
 321:Generated_Source\PSoC5/cyfitter_cfg.c **** {
 149              		.loc 1 321 0
 150              		.cfi_startproc
 151              		@ args = 0, pretend = 0, frame = 0
 152              		@ frame_needed = 0, uses_anonymous_args = 0
 153 0000 F8B5     		push	{r3, r4, r5, r6, r7, lr}
 154              		.cfi_def_cfa_offset 24
 155              		.cfi_offset 3, -24
 156              		.cfi_offset 4, -20
 157              		.cfi_offset 5, -16
 158              		.cfi_offset 6, -12
 159              		.cfi_offset 7, -8
 160              		.cfi_offset 14, -4
 322:Generated_Source\PSoC5/cyfitter_cfg.c **** 	uint8 bg_xover_inl_trim = CY_GET_XTND_REG8((void CYFAR *)(CYREG_FLSHID_MFG_CFG_BG_XOVER_INL_TRIM +
 161              		.loc 1 322 0
 162 0002 1D4B     		ldr	r3, .L13
 163 0004 1B78     		ldrb	r3, [r3]	@ zero_extendqisi2
 164 0006 DBB2     		uxtb	r3, r3
 165              	.LVL15:
 323:Generated_Source\PSoC5/cyfitter_cfg.c **** 	uint8 cr4 = CY_GET_XTND_REG8((void CYFAR *)(CYREG_RESET_CR4));
 166              		.loc 1 323 0
 167 0008 1C4E     		ldr	r6, .L13+4
 168 000a 3478     		ldrb	r4, [r6]	@ zero_extendqisi2
 169 000c E4B2     		uxtb	r4, r4
 170              	.LVL16:
 324:Generated_Source\PSoC5/cyfitter_cfg.c **** 	uint8 cr5 = CY_GET_XTND_REG8((void CYFAR *)(CYREG_RESET_CR5));
 171              		.loc 1 324 0
 172 000e 1C4F     		ldr	r7, .L13+8
 173 0010 3D78     		ldrb	r5, [r7]	@ zero_extendqisi2
 174 0012 EDB2     		uxtb	r5, r5
 175              	.LVL17:
 325:Generated_Source\PSoC5/cyfitter_cfg.c **** 	CY_SET_XTND_REG8((void CYFAR *)(CYREG_BG_DFT0), (bg_xover_inl_trim & 0x07u));
 176              		.loc 1 325 0
 177 0014 03F00701 		and	r1, r3, #7
 178 0018 1A4A     		ldr	r2, .L13+12
 179 001a 1170     		strb	r1, [r2]
 326:Generated_Source\PSoC5/cyfitter_cfg.c **** 	CY_SET_XTND_REG8((void CYFAR *)(CYREG_BG_DFT1), ((bg_xover_inl_trim >> 4) & 0x0Fu));
 180              		.loc 1 326 0
 181 001c 1B09     		lsrs	r3, r3, #4
 182              	.LVL18:
ARM GAS  C:\Users\lilu1\AppData\Local\Temp\cc9UQxiR.s 			page 10


 183 001e 0132     		adds	r2, r2, #1
 184 0020 1370     		strb	r3, [r2]
 327:Generated_Source\PSoC5/cyfitter_cfg.c **** 	/* Disable PRES while setting up SAR voltage reference */
 328:Generated_Source\PSoC5/cyfitter_cfg.c **** 	CY_SET_XTND_REG8((void CYFAR *)(CYREG_RESET_CR4), (cr4 | 0x03u));
 185              		.loc 1 328 0
 186 0022 44F00303 		orr	r3, r4, #3
 187 0026 3370     		strb	r3, [r6]
 329:Generated_Source\PSoC5/cyfitter_cfg.c **** 	CY_SET_XTND_REG8((void CYFAR *)(CYREG_RESET_CR5), (cr5 | 0x03u));
 188              		.loc 1 329 0
 189 0028 45F00303 		orr	r3, r5, #3
 190 002c 3B70     		strb	r3, [r7]
 330:Generated_Source\PSoC5/cyfitter_cfg.c **** 	CY_SET_XTND_REG16((void CYFAR *)CYREG_PRT0_AMUX, 0x3FC0u);
 191              		.loc 1 330 0
 192 002e 4FF47F52 		mov	r2, #16320
 193 0032 154B     		ldr	r3, .L13+16
 194 0034 1A80     		strh	r2, [r3]	@ movhi
 331:Generated_Source\PSoC5/cyfitter_cfg.c **** 	CY_SET_XTND_REG16((void CYFAR *)CYREG_PRT4_AMUX, 0x03FCu);
 195              		.loc 1 331 0
 196 0036 4FF47F72 		mov	r2, #1020
 197 003a 4033     		adds	r3, r3, #64
 198 003c 1A80     		strh	r2, [r3]	@ movhi
 332:Generated_Source\PSoC5/cyfitter_cfg.c **** 	CY_SET_XTND_REG8((void CYFAR *)CYREG_SAR0_CSR1, 0x40u);
 199              		.loc 1 332 0
 200 003e 4023     		movs	r3, #64
 201 0040 124A     		ldr	r2, .L13+20
 202 0042 1370     		strb	r3, [r2]
 333:Generated_Source\PSoC5/cyfitter_cfg.c **** 	CY_SET_XTND_REG8((void CYFAR *)CYREG_SAR0_CSR3, 0x40u);
 203              		.loc 1 333 0
 204 0044 0232     		adds	r2, r2, #2
 205 0046 1370     		strb	r3, [r2]
 334:Generated_Source\PSoC5/cyfitter_cfg.c **** 	CY_SET_XTND_REG8((void CYFAR *)CYREG_SAR1_CSR1, 0x40u);
 206              		.loc 1 334 0
 207 0048 0632     		adds	r2, r2, #6
 208 004a 1370     		strb	r3, [r2]
 335:Generated_Source\PSoC5/cyfitter_cfg.c **** 	CY_SET_XTND_REG8((void CYFAR *)CYREG_SAR1_CSR3, 0x40u);
 209              		.loc 1 335 0
 210 004c 0232     		adds	r2, r2, #2
 211 004e 1370     		strb	r3, [r2]
 336:Generated_Source\PSoC5/cyfitter_cfg.c **** 	CY_SET_XTND_REG8((void CYFAR *)CYREG_SAR0_SW3, 0x21u);
 212              		.loc 1 336 0
 213 0050 2122     		movs	r2, #33
 214 0052 0F4B     		ldr	r3, .L13+24
 215 0054 1A70     		strb	r2, [r3]
 337:Generated_Source\PSoC5/cyfitter_cfg.c **** 	CY_SET_XTND_REG8((void CYFAR *)CYREG_SAR1_SW0, 0xF0u);
 216              		.loc 1 337 0
 217 0056 F023     		movs	r3, #240
 218 0058 0E4A     		ldr	r2, .L13+28
 219 005a 1370     		strb	r3, [r2]
 338:Generated_Source\PSoC5/cyfitter_cfg.c **** 	CY_SET_XTND_REG8((void CYFAR *)CYREG_SAR1_SW3, 0x20u);
 220              		.loc 1 338 0
 221 005c 2021     		movs	r1, #32
 222 005e 0332     		adds	r2, r2, #3
 223 0060 1170     		strb	r1, [r2]
 339:Generated_Source\PSoC5/cyfitter_cfg.c **** 	CY_SET_XTND_REG8((void CYFAR *)CYREG_BUS_SW0, 0xF0u);
 224              		.loc 1 339 0
 225 0062 2D32     		adds	r2, r2, #45
 226 0064 1370     		strb	r3, [r2]
ARM GAS  C:\Users\lilu1\AppData\Local\Temp\cc9UQxiR.s 			page 11


 340:Generated_Source\PSoC5/cyfitter_cfg.c **** 	CyDelayUs(10u); /* Allow vref to settle before re-enabling PRES */
 227              		.loc 1 340 0
 228 0066 0A20     		movs	r0, #10
 229 0068 FFF7FEFF 		bl	CyDelayUs
 230              	.LVL19:
 341:Generated_Source\PSoC5/cyfitter_cfg.c **** 	CY_SET_XTND_REG8((void CYFAR *)(CYREG_RESET_CR5), (cr5));
 231              		.loc 1 341 0
 232 006c 3D70     		strb	r5, [r7]
 342:Generated_Source\PSoC5/cyfitter_cfg.c **** 	CY_SET_XTND_REG8((void CYFAR *)(CYREG_RESET_CR4), (cr4));
 233              		.loc 1 342 0
 234 006e 3470     		strb	r4, [r6]
 343:Generated_Source\PSoC5/cyfitter_cfg.c **** 	CY_SET_XTND_REG8((void CYFAR *)CYREG_PUMP_CR0, 0x44u);
 235              		.loc 1 343 0
 236 0070 4422     		movs	r2, #68
 237 0072 094B     		ldr	r3, .L13+32
 238 0074 1A70     		strb	r2, [r3]
 239 0076 F8BD     		pop	{r3, r4, r5, r6, r7, pc}
 240              	.LVL20:
 241              	.L14:
 242              		.align	2
 243              	.L13:
 244 0078 CF010049 		.word	1224737231
 245 007c F8460040 		.word	1073759992
 246 0080 F9460040 		.word	1073759993
 247 0084 6E580040 		.word	1073764462
 248 0088 0C510040 		.word	1073762572
 249 008c 01590040 		.word	1073764609
 250 0090 235B0040 		.word	1073765155
 251 0094 285B0040 		.word	1073765160
 252 0098 76580040 		.word	1073764470
 253              		.cfi_endproc
 254              	.LFE6:
 255              		.size	AnalogSetDefault, .-AnalogSetDefault
 256              		.section	.text.CYCONFIGCPY,"ax",%progbits
 257              		.align	2
 258              		.thumb
 259              		.thumb_func
 260              		.type	CYCONFIGCPY, %function
 261              	CYCONFIGCPY:
 262              	.LFB1:
  71:Generated_Source\PSoC5/cyfitter_cfg.c **** 	(void)memcpy(dest, src, n);
 263              		.loc 1 71 0
 264              		.cfi_startproc
 265              		@ args = 0, pretend = 0, frame = 0
 266              		@ frame_needed = 0, uses_anonymous_args = 0
 267              	.LVL21:
 268 0000 08B5     		push	{r3, lr}
 269              		.cfi_def_cfa_offset 8
 270              		.cfi_offset 3, -8
 271              		.cfi_offset 14, -4
  72:Generated_Source\PSoC5/cyfitter_cfg.c **** }
 272              		.loc 1 72 0
 273 0002 FFF7FEFF 		bl	memcpy
 274              	.LVL22:
 275 0006 08BD     		pop	{r3, pc}
 276              		.cfi_endproc
 277              	.LFE1:
ARM GAS  C:\Users\lilu1\AppData\Local\Temp\cc9UQxiR.s 			page 12


 278              		.size	CYCONFIGCPY, .-CYCONFIGCPY
 279              		.section	.text.ClockSetup,"ax",%progbits
 280              		.align	2
 281              		.thumb
 282              		.thumb_func
 283              		.type	ClockSetup, %function
 284              	ClockSetup:
 285              	.LFB5:
 237:Generated_Source\PSoC5/cyfitter_cfg.c **** 	uint32 timeout;
 286              		.loc 1 237 0
 287              		.cfi_startproc
 288              		@ args = 0, pretend = 0, frame = 0
 289              		@ frame_needed = 0, uses_anonymous_args = 0
 290 0000 38B5     		push	{r3, r4, r5, lr}
 291              		.cfi_def_cfa_offset 16
 292              		.cfi_offset 3, -16
 293              		.cfi_offset 4, -12
 294              		.cfi_offset 5, -8
 295              		.cfi_offset 14, -4
 243:Generated_Source\PSoC5/cyfitter_cfg.c **** 	CY_SET_XTND_REG8((void CYFAR *)(CYREG_CLKDIST_DCFG0_CFG0 + 0x2u), 0x18u);
 296              		.loc 1 243 0
 297 0002 0E22     		movs	r2, #14
 298 0004 354B     		ldr	r3, .L23
 299 0006 1A80     		strh	r2, [r3]	@ movhi
 244:Generated_Source\PSoC5/cyfitter_cfg.c **** 	CY_SET_XTND_REG16((void CYFAR *)(CYREG_CLKDIST_DCFG1_CFG0), 0x000Eu);
 300              		.loc 1 244 0
 301 0008 1823     		movs	r3, #24
 302 000a 3549     		ldr	r1, .L23+4
 303 000c 0B70     		strb	r3, [r1]
 245:Generated_Source\PSoC5/cyfitter_cfg.c **** 	CY_SET_XTND_REG8((void CYFAR *)(CYREG_CLKDIST_DCFG1_CFG0 + 0x2u), 0x18u);
 304              		.loc 1 245 0
 305 000e 0231     		adds	r1, r1, #2
 306 0010 0A80     		strh	r2, [r1]	@ movhi
 246:Generated_Source\PSoC5/cyfitter_cfg.c **** 	CY_SET_XTND_REG16((void CYFAR *)(CYREG_CLKDIST_DCFG2_CFG0), 0x0033u);
 307              		.loc 1 246 0
 308 0012 344A     		ldr	r2, .L23+8
 309 0014 1370     		strb	r3, [r2]
 247:Generated_Source\PSoC5/cyfitter_cfg.c **** 	CY_SET_XTND_REG8((void CYFAR *)(CYREG_CLKDIST_DCFG2_CFG0 + 0x2u), 0x18u);
 310              		.loc 1 247 0
 311 0016 3322     		movs	r2, #51
 312 0018 0431     		adds	r1, r1, #4
 313 001a 0A80     		strh	r2, [r1]	@ movhi
 248:Generated_Source\PSoC5/cyfitter_cfg.c **** 	CY_SET_XTND_REG16((void CYFAR *)(CYREG_CLKDIST_DCFG3_CFG0), 0x0033u);
 314              		.loc 1 248 0
 315 001c 0231     		adds	r1, r1, #2
 316 001e 0B70     		strb	r3, [r1]
 249:Generated_Source\PSoC5/cyfitter_cfg.c **** 	CY_SET_XTND_REG8((void CYFAR *)(CYREG_CLKDIST_DCFG3_CFG0 + 0x2u), 0x18u);
 317              		.loc 1 249 0
 318 0020 0231     		adds	r1, r1, #2
 319 0022 0A80     		strh	r2, [r1]	@ movhi
 250:Generated_Source\PSoC5/cyfitter_cfg.c **** 	CY_SET_XTND_REG16((void CYFAR *)(CYREG_CLKDIST_DCFG4_CFG0), 0x0033u);
 320              		.loc 1 250 0
 321 0024 0231     		adds	r1, r1, #2
 322 0026 0B70     		strb	r3, [r1]
 251:Generated_Source\PSoC5/cyfitter_cfg.c **** 	CY_SET_XTND_REG8((void CYFAR *)(CYREG_CLKDIST_DCFG4_CFG0 + 0x2u), 0x18u);
 323              		.loc 1 251 0
 324 0028 0231     		adds	r1, r1, #2
ARM GAS  C:\Users\lilu1\AppData\Local\Temp\cc9UQxiR.s 			page 13


 325 002a 0A80     		strh	r2, [r1]	@ movhi
 252:Generated_Source\PSoC5/cyfitter_cfg.c **** 	CY_SET_XTND_REG16((void CYFAR *)(CYREG_CLKDIST_DCFG5_CFG0), 0x095Fu);
 326              		.loc 1 252 0
 327 002c 2E4A     		ldr	r2, .L23+12
 328 002e 1370     		strb	r3, [r2]
 253:Generated_Source\PSoC5/cyfitter_cfg.c **** 	CY_SET_XTND_REG8((void CYFAR *)(CYREG_CLKDIST_DCFG5_CFG0 + 0x2u), 0x18u);
 329              		.loc 1 253 0
 330 0030 40F65F12 		movw	r2, #2399
 331 0034 0431     		adds	r1, r1, #4
 332 0036 0A80     		strh	r2, [r1]	@ movhi
 254:Generated_Source\PSoC5/cyfitter_cfg.c **** 	CY_SET_XTND_REG16((void CYFAR *)(CYREG_CLKDIST_DCFG6_CFG0), 0x095Fu);
 333              		.loc 1 254 0
 334 0038 0231     		adds	r1, r1, #2
 335 003a 0B70     		strb	r3, [r1]
 255:Generated_Source\PSoC5/cyfitter_cfg.c **** 	CY_SET_XTND_REG8((void CYFAR *)(CYREG_CLKDIST_DCFG6_CFG0 + 0x2u), 0x18u);
 336              		.loc 1 255 0
 337 003c 0231     		adds	r1, r1, #2
 338 003e 0A80     		strh	r2, [r1]	@ movhi
 256:Generated_Source\PSoC5/cyfitter_cfg.c **** 	CY_SET_XTND_REG16((void CYFAR *)(CYREG_CLKDIST_DCFG7_CFG0), 0x095Fu);
 339              		.loc 1 256 0
 340 0040 0231     		adds	r1, r1, #2
 341 0042 0B70     		strb	r3, [r1]
 257:Generated_Source\PSoC5/cyfitter_cfg.c **** 	CY_SET_XTND_REG8((void CYFAR *)(CYREG_CLKDIST_DCFG7_CFG0 + 0x2u), 0x18u);
 342              		.loc 1 257 0
 343 0044 0231     		adds	r1, r1, #2
 344 0046 0A80     		strh	r2, [r1]	@ movhi
 258:Generated_Source\PSoC5/cyfitter_cfg.c **** 
 345              		.loc 1 258 0
 346 0048 284A     		ldr	r2, .L23+16
 347 004a 1370     		strb	r3, [r2]
 261:Generated_Source\PSoC5/cyfitter_cfg.c **** 
 348              		.loc 1 261 0
 349 004c 2848     		ldr	r0, .L23+20
 350 004e 2949     		ldr	r1, .L23+24
 351 0050 0422     		movs	r2, #4
 352 0052 FFF7FEFF 		bl	CYCONFIGCPY
 353              	.LVL23:
 264:Generated_Source\PSoC5/cyfitter_cfg.c **** 
 354              		.loc 1 264 0
 355 0056 0622     		movs	r2, #6
 356 0058 274B     		ldr	r3, .L23+28
 357 005a 1A70     		strb	r2, [r3]
 267:Generated_Source\PSoC5/cyfitter_cfg.c **** 	CY_SET_XTND_REG8((void CYFAR *)(CYREG_IMO_TR1), (CY_GET_XTND_REG8((void CYFAR *)CYREG_FLSHID_CUST_
 358              		.loc 1 267 0
 359 005c 5222     		movs	r2, #82
 360 005e A3F58073 		sub	r3, r3, #256
 361 0062 1A70     		strb	r2, [r3]
 268:Generated_Source\PSoC5/cyfitter_cfg.c **** 
 362              		.loc 1 268 0
 363 0064 254B     		ldr	r3, .L23+32
 364 0066 1B78     		ldrb	r3, [r3]	@ zero_extendqisi2
 365 0068 DBB2     		uxtb	r3, r3
 366 006a 254A     		ldr	r2, .L23+36
 367 006c 1370     		strb	r3, [r2]
 271:Generated_Source\PSoC5/cyfitter_cfg.c **** 	CY_SET_XTND_REG16((void CYFAR *)(CYREG_FASTCLK_PLL_CFG0), 0x1251u);
 368              		.loc 1 271 0
 369 006e 4FF4E162 		mov	r2, #1800
ARM GAS  C:\Users\lilu1\AppData\Local\Temp\cc9UQxiR.s 			page 14


 370 0072 244B     		ldr	r3, .L23+40
 371 0074 1A80     		strh	r2, [r3]	@ movhi
 272:Generated_Source\PSoC5/cyfitter_cfg.c **** 	/* Wait up to 250us for the PLL to lock */
 372              		.loc 1 272 0
 373 0076 41F25122 		movw	r2, #4689
 374 007a 023B     		subs	r3, r3, #2
 375 007c 1A80     		strh	r2, [r3]	@ movhi
 376              	.LVL24:
 274:Generated_Source\PSoC5/cyfitter_cfg.c **** 	for (timeout = 250u / 10u; (timeout > 0u) && (pllLock != 0x03u); timeout--)
 377              		.loc 1 274 0
 378 007e 0024     		movs	r4, #0
 275:Generated_Source\PSoC5/cyfitter_cfg.c **** 	{ 
 379              		.loc 1 275 0
 380 0080 1925     		movs	r5, #25
 381 0082 0CE0     		b	.L18
 382              	.LVL25:
 383              	.L20:
 277:Generated_Source\PSoC5/cyfitter_cfg.c **** 		CyDelayCycles(10u * 48u); /* Delay 10us based on 48MHz clock */
 384              		.loc 1 277 0 discriminator 4
 385 0084 204B     		ldr	r3, .L23+44
 386 0086 1B78     		ldrb	r3, [r3]	@ zero_extendqisi2
 387 0088 03F00103 		and	r3, r3, #1
 388 008c 43EA4404 		orr	r4, r3, r4, lsl #1
 389              	.LVL26:
 390 0090 04F00304 		and	r4, r4, #3
 391              	.LVL27:
 278:Generated_Source\PSoC5/cyfitter_cfg.c **** 	}
 392              		.loc 1 278 0 discriminator 4
 393 0094 4FF4F070 		mov	r0, #480
 394 0098 FFF7FEFF 		bl	CyDelayCycles
 395              	.LVL28:
 275:Generated_Source\PSoC5/cyfitter_cfg.c **** 	{ 
 396              		.loc 1 275 0 discriminator 4
 397 009c 013D     		subs	r5, r5, #1
 398              	.LVL29:
 399              	.L18:
 275:Generated_Source\PSoC5/cyfitter_cfg.c **** 	{ 
 400              		.loc 1 275 0 is_stmt 0 discriminator 1
 401 009e 0DB1     		cbz	r5, .L19
 275:Generated_Source\PSoC5/cyfitter_cfg.c **** 	{ 
 402              		.loc 1 275 0 discriminator 3
 403 00a0 032C     		cmp	r4, #3
 404 00a2 EFD1     		bne	.L20
 405              	.L19:
 281:Generated_Source\PSoC5/cyfitter_cfg.c **** 	{
 406              		.loc 1 281 0 is_stmt 1
 407 00a4 15B9     		cbnz	r5, .L21
 283:Generated_Source\PSoC5/cyfitter_cfg.c **** 	}
 408              		.loc 1 283 0
 409 00a6 0320     		movs	r0, #3
 410 00a8 FFF7FEFF 		bl	CyClockStartupError
 411              	.LVL30:
 412              	.L21:
 287:Generated_Source\PSoC5/cyfitter_cfg.c **** 	CY_SET_XTND_REG8((void CYFAR *)(CYREG_CLKDIST_MSTR0), 0x07u);
 413              		.loc 1 287 0
 414 00ac 174A     		ldr	r2, .L23+48
 415 00ae 4FF48073 		mov	r3, #256
ARM GAS  C:\Users\lilu1\AppData\Local\Temp\cc9UQxiR.s 			page 15


 416 00b2 1380     		strh	r3, [r2]	@ movhi
 288:Generated_Source\PSoC5/cyfitter_cfg.c **** 	CY_SET_XTND_REG8((void CYFAR *)(CYREG_CLKDIST_BCFG0), 0x00u);
 417              		.loc 1 288 0
 418 00b4 0723     		movs	r3, #7
 419 00b6 1370     		strb	r3, [r2]
 289:Generated_Source\PSoC5/cyfitter_cfg.c **** 	CY_SET_XTND_REG8((void CYFAR *)(CYREG_CLKDIST_BCFG2), 0x48u);
 420              		.loc 1 289 0
 421 00b8 0023     		movs	r3, #0
 422 00ba 1549     		ldr	r1, .L23+52
 423 00bc 0B70     		strb	r3, [r1]
 290:Generated_Source\PSoC5/cyfitter_cfg.c **** 	CY_SET_XTND_REG8((void CYFAR *)(CYREG_CLKDIST_MSTR0), 0x00u);
 424              		.loc 1 290 0
 425 00be 4820     		movs	r0, #72
 426 00c0 0231     		adds	r1, r1, #2
 427 00c2 0870     		strb	r0, [r1]
 291:Generated_Source\PSoC5/cyfitter_cfg.c **** 
 428              		.loc 1 291 0
 429 00c4 1370     		strb	r3, [r2]
 294:Generated_Source\PSoC5/cyfitter_cfg.c **** 	CY_SET_XTND_REG8((void CYFAR *)(CYREG_CLKDIST_LD), 0x02u);
 430              		.loc 1 294 0
 431 00c6 0532     		adds	r2, r2, #5
 432 00c8 1370     		strb	r3, [r2]
 295:Generated_Source\PSoC5/cyfitter_cfg.c **** 
 433              		.loc 1 295 0
 434 00ca 0222     		movs	r2, #2
 435 00cc 114B     		ldr	r3, .L23+56
 436 00ce 1A70     		strb	r2, [r3]
 297:Generated_Source\PSoC5/cyfitter_cfg.c **** }
 437              		.loc 1 297 0
 438 00d0 03F2A133 		addw	r3, r3, #929
 439 00d4 1A78     		ldrb	r2, [r3]	@ zero_extendqisi2
 440 00d6 FF22     		movs	r2, #255
 441 00d8 1A70     		strb	r2, [r3]
 442 00da 38BD     		pop	{r3, r4, r5, pc}
 443              	.LVL31:
 444              	.L24:
 445              		.align	2
 446              	.L23:
 447 00dc 80400040 		.word	1073758336
 448 00e0 82400040 		.word	1073758338
 449 00e4 86400040 		.word	1073758342
 450 00e8 92400040 		.word	1073758354
 451 00ec 9E400040 		.word	1073758366
 452 00f0 00410040 		.word	1073758464
 453 00f4 D0140048 		.word	1207964880
 454 00f8 00430040 		.word	1073758976
 455 00fc 0F010049 		.word	1224737039
 456 0100 A1460040 		.word	1073759905
 457 0104 22420040 		.word	1073758754
 458 0108 25420040 		.word	1073758757
 459 010c 04400040 		.word	1073758212
 460 0110 06400040 		.word	1073758214
 461 0114 01400040 		.word	1073758209
 462              		.cfi_endproc
 463              	.LFE5:
 464              		.size	ClockSetup, .-ClockSetup
 465              		.section	.text.SetAnalogRoutingPumps,"ax",%progbits
ARM GAS  C:\Users\lilu1\AppData\Local\Temp\cc9UQxiR.s 			page 16


 466              		.align	2
 467              		.global	SetAnalogRoutingPumps
 468              		.thumb
 469              		.thumb_func
 470              		.type	SetAnalogRoutingPumps, %function
 471              	SetAnalogRoutingPumps:
 472              	.LFB7:
 344:Generated_Source\PSoC5/cyfitter_cfg.c **** }
 345:Generated_Source\PSoC5/cyfitter_cfg.c **** 
 346:Generated_Source\PSoC5/cyfitter_cfg.c **** 
 347:Generated_Source\PSoC5/cyfitter_cfg.c **** /*******************************************************************************
 348:Generated_Source\PSoC5/cyfitter_cfg.c **** * Function Name: SetAnalogRoutingPumps
 349:Generated_Source\PSoC5/cyfitter_cfg.c **** ********************************************************************************
 350:Generated_Source\PSoC5/cyfitter_cfg.c **** *
 351:Generated_Source\PSoC5/cyfitter_cfg.c **** * Summary:
 352:Generated_Source\PSoC5/cyfitter_cfg.c **** * Enables or disables the analog pumps feeding analog routing switches.
 353:Generated_Source\PSoC5/cyfitter_cfg.c **** * Intended to be called at startup, based on the Vdda system configuration;
 354:Generated_Source\PSoC5/cyfitter_cfg.c **** * may be called during operation when the user informs us that the Vdda voltage
 355:Generated_Source\PSoC5/cyfitter_cfg.c **** * crossed the pump threshold.
 356:Generated_Source\PSoC5/cyfitter_cfg.c **** *
 357:Generated_Source\PSoC5/cyfitter_cfg.c **** * Parameters:
 358:Generated_Source\PSoC5/cyfitter_cfg.c **** *  enabled - 1 to enable the pumps, 0 to disable the pumps
 359:Generated_Source\PSoC5/cyfitter_cfg.c **** *
 360:Generated_Source\PSoC5/cyfitter_cfg.c **** * Return:
 361:Generated_Source\PSoC5/cyfitter_cfg.c **** *  void
 362:Generated_Source\PSoC5/cyfitter_cfg.c **** *
 363:Generated_Source\PSoC5/cyfitter_cfg.c **** *******************************************************************************/
 364:Generated_Source\PSoC5/cyfitter_cfg.c **** void SetAnalogRoutingPumps(uint8 enabled)
 365:Generated_Source\PSoC5/cyfitter_cfg.c **** {
 473              		.loc 1 365 0
 474              		.cfi_startproc
 475              		@ args = 0, pretend = 0, frame = 0
 476              		@ frame_needed = 0, uses_anonymous_args = 0
 477              		@ link register save eliminated.
 478              	.LVL32:
 366:Generated_Source\PSoC5/cyfitter_cfg.c **** 	uint8 regValue = CY_GET_XTND_REG8((void CYFAR *)CYREG_PUMP_CR0);
 479              		.loc 1 366 0
 480 0000 054B     		ldr	r3, .L28
 481 0002 1B78     		ldrb	r3, [r3]	@ zero_extendqisi2
 482 0004 DBB2     		uxtb	r3, r3
 483              	.LVL33:
 367:Generated_Source\PSoC5/cyfitter_cfg.c **** 	if (enabled != 0u)
 484              		.loc 1 367 0
 485 0006 10B1     		cbz	r0, .L26
 368:Generated_Source\PSoC5/cyfitter_cfg.c **** 	{
 369:Generated_Source\PSoC5/cyfitter_cfg.c **** 		regValue |= 0x22u;
 486              		.loc 1 369 0
 487 0008 43F02203 		orr	r3, r3, #34
 488              	.LVL34:
 489 000c 01E0     		b	.L27
 490              	.L26:
 370:Generated_Source\PSoC5/cyfitter_cfg.c **** 	}
 371:Generated_Source\PSoC5/cyfitter_cfg.c **** 	else
 372:Generated_Source\PSoC5/cyfitter_cfg.c **** 	{
 373:Generated_Source\PSoC5/cyfitter_cfg.c **** 		regValue &= (uint8)~0x22u;
 491              		.loc 1 373 0
 492 000e 03F0DD03 		and	r3, r3, #221
ARM GAS  C:\Users\lilu1\AppData\Local\Temp\cc9UQxiR.s 			page 17


 493              	.LVL35:
 494              	.L27:
 374:Generated_Source\PSoC5/cyfitter_cfg.c **** 	}
 375:Generated_Source\PSoC5/cyfitter_cfg.c **** 	CY_SET_XTND_REG8((void CYFAR *)CYREG_PUMP_CR0, regValue);
 495              		.loc 1 375 0
 496 0012 014A     		ldr	r2, .L28
 497 0014 1370     		strb	r3, [r2]
 498 0016 7047     		bx	lr
 499              	.L29:
 500              		.align	2
 501              	.L28:
 502 0018 76580040 		.word	1073764470
 503              		.cfi_endproc
 504              	.LFE7:
 505              		.size	SetAnalogRoutingPumps, .-SetAnalogRoutingPumps
 506              		.section	.text.cyfitter_cfg,"ax",%progbits
 507              		.align	2
 508              		.global	cyfitter_cfg
 509              		.thumb
 510              		.thumb_func
 511              		.type	cyfitter_cfg, %function
 512              	cyfitter_cfg:
 513              	.LFB8:
 376:Generated_Source\PSoC5/cyfitter_cfg.c **** }
 377:Generated_Source\PSoC5/cyfitter_cfg.c **** 
 378:Generated_Source\PSoC5/cyfitter_cfg.c **** #define CY_AMUX_UNUSED CYREG_BOOST_SR
 379:Generated_Source\PSoC5/cyfitter_cfg.c **** 
 380:Generated_Source\PSoC5/cyfitter_cfg.c **** 
 381:Generated_Source\PSoC5/cyfitter_cfg.c **** /*******************************************************************************
 382:Generated_Source\PSoC5/cyfitter_cfg.c **** * Function Name: cyfitter_cfg
 383:Generated_Source\PSoC5/cyfitter_cfg.c **** ********************************************************************************
 384:Generated_Source\PSoC5/cyfitter_cfg.c **** * Summary:
 385:Generated_Source\PSoC5/cyfitter_cfg.c **** *  This function is called by the start-up code for the selected device. It
 386:Generated_Source\PSoC5/cyfitter_cfg.c **** *  performs all of the necessary device configuration based on the design
 387:Generated_Source\PSoC5/cyfitter_cfg.c **** *  settings.  This includes settings from the Design Wide Resources (DWR) such
 388:Generated_Source\PSoC5/cyfitter_cfg.c **** *  as Clocks and Pins as well as any component configuration that is necessary.
 389:Generated_Source\PSoC5/cyfitter_cfg.c **** *
 390:Generated_Source\PSoC5/cyfitter_cfg.c **** * Parameters:  
 391:Generated_Source\PSoC5/cyfitter_cfg.c **** *   void
 392:Generated_Source\PSoC5/cyfitter_cfg.c **** *
 393:Generated_Source\PSoC5/cyfitter_cfg.c **** * Return:
 394:Generated_Source\PSoC5/cyfitter_cfg.c **** *   void
 395:Generated_Source\PSoC5/cyfitter_cfg.c **** *
 396:Generated_Source\PSoC5/cyfitter_cfg.c **** *******************************************************************************/
 397:Generated_Source\PSoC5/cyfitter_cfg.c **** 
 398:Generated_Source\PSoC5/cyfitter_cfg.c **** void cyfitter_cfg(void)
 399:Generated_Source\PSoC5/cyfitter_cfg.c **** {
 514              		.loc 1 399 0
 515              		.cfi_startproc
 516              		@ args = 0, pretend = 0, frame = 0
 517              		@ frame_needed = 0, uses_anonymous_args = 0
 518 0000 38B5     		push	{r3, r4, r5, lr}
 519              		.cfi_def_cfa_offset 16
 520              		.cfi_offset 3, -16
 521              		.cfi_offset 4, -12
 522              		.cfi_offset 5, -8
 523              		.cfi_offset 14, -4
ARM GAS  C:\Users\lilu1\AppData\Local\Temp\cc9UQxiR.s 			page 18


 400:Generated_Source\PSoC5/cyfitter_cfg.c **** #ifdef CYGlobalIntDisable
 401:Generated_Source\PSoC5/cyfitter_cfg.c **** 	/* Disable interrupts by default. Let user enable if/when they want. */
 402:Generated_Source\PSoC5/cyfitter_cfg.c **** 	CYGlobalIntDisable
 524              		.loc 1 402 0
 525              	@ 402 "Generated_Source\PSoC5\cyfitter_cfg.c" 1
 526 0002 72B6     		CPSID   i
 527              	@ 0 "" 2
 403:Generated_Source\PSoC5/cyfitter_cfg.c **** #endif
 404:Generated_Source\PSoC5/cyfitter_cfg.c **** 
 405:Generated_Source\PSoC5/cyfitter_cfg.c **** 	/* Enable/Disable Debug functionality based on settings from System DWR */
 406:Generated_Source\PSoC5/cyfitter_cfg.c **** 	CY_SET_XTND_REG8((void CYFAR *)CYREG_MLOGIC_DEBUG, (CY_GET_XTND_REG8((void CYFAR *)CYREG_MLOGIC_DE
 528              		.loc 1 406 0
 529              		.thumb
 530 0004 404A     		ldr	r2, .L36
 531 0006 1378     		ldrb	r3, [r2]	@ zero_extendqisi2
 532 0008 43F00403 		orr	r3, r3, #4
 533 000c 1370     		strb	r3, [r2]
 534              	.LVL36:
 535              	.LBB3:
 407:Generated_Source\PSoC5/cyfitter_cfg.c **** 
 408:Generated_Source\PSoC5/cyfitter_cfg.c **** 	{
 409:Generated_Source\PSoC5/cyfitter_cfg.c **** 
 410:Generated_Source\PSoC5/cyfitter_cfg.c **** 		CYPACKED typedef struct {
 411:Generated_Source\PSoC5/cyfitter_cfg.c **** 			void CYFAR *address;
 412:Generated_Source\PSoC5/cyfitter_cfg.c **** 			uint16 size;
 413:Generated_Source\PSoC5/cyfitter_cfg.c **** 		} CYPACKED_ATTR cfg_memset_t;
 414:Generated_Source\PSoC5/cyfitter_cfg.c **** 
 415:Generated_Source\PSoC5/cyfitter_cfg.c **** 
 416:Generated_Source\PSoC5/cyfitter_cfg.c **** 		CYPACKED typedef struct {
 417:Generated_Source\PSoC5/cyfitter_cfg.c **** 			void CYFAR *dest;
 418:Generated_Source\PSoC5/cyfitter_cfg.c **** 			const void CYFAR *src;
 419:Generated_Source\PSoC5/cyfitter_cfg.c **** 			uint16 size;
 420:Generated_Source\PSoC5/cyfitter_cfg.c **** 		} CYPACKED_ATTR cfg_memcpy_t;
 421:Generated_Source\PSoC5/cyfitter_cfg.c **** 
 422:Generated_Source\PSoC5/cyfitter_cfg.c **** 		static const cfg_memset_t CYCODE cfg_memset_list [] = {
 423:Generated_Source\PSoC5/cyfitter_cfg.c **** 			/* address, size */
 424:Generated_Source\PSoC5/cyfitter_cfg.c **** 			{(void CYFAR *)(CYREG_PRT3_DR), 16u},
 425:Generated_Source\PSoC5/cyfitter_cfg.c **** 			{(void CYFAR *)(CYDEV_UCFG_B0_P0_U1_BASE), 3968u},
 426:Generated_Source\PSoC5/cyfitter_cfg.c **** 			{(void CYFAR *)(CYDEV_UCFG_B1_P2_U0_BASE), 1664u},
 427:Generated_Source\PSoC5/cyfitter_cfg.c **** 			{(void CYFAR *)(CYDEV_UCFG_B1_P5_ROUTE_BASE), 256u},
 428:Generated_Source\PSoC5/cyfitter_cfg.c **** 			{(void CYFAR *)(CYDEV_UCFG_DSI0_BASE), 2560u},
 429:Generated_Source\PSoC5/cyfitter_cfg.c **** 			{(void CYFAR *)(CYDEV_UCFG_DSI12_BASE), 512u},
 430:Generated_Source\PSoC5/cyfitter_cfg.c **** 			{(void CYFAR *)(CYREG_BCTL0_MDCLK_EN), 32u},
 431:Generated_Source\PSoC5/cyfitter_cfg.c **** 		};
 432:Generated_Source\PSoC5/cyfitter_cfg.c **** 
 433:Generated_Source\PSoC5/cyfitter_cfg.c **** 		static const cfg_memcpy_t CYCODE cfg_memcpy_list [] = {
 434:Generated_Source\PSoC5/cyfitter_cfg.c **** 			/* dest, src, size */
 435:Generated_Source\PSoC5/cyfitter_cfg.c **** 			{(void CYFAR *)(CYDEV_PRTDSI_PRT12_BASE), BS_IOPORT_7_VAL, 6u},
 436:Generated_Source\PSoC5/cyfitter_cfg.c **** 			{(void CYFAR *)(CYDEV_UCFG_B0_P0_U0_BASE), BS_UDB_1_5_0_CONFIG_VAL, 128u},
 437:Generated_Source\PSoC5/cyfitter_cfg.c **** 			{(void CYFAR *)(CYDEV_UCFG_B1_P5_U1_BASE), BS_UDB_0_0_1_CONFIG_VAL, 128u},
 438:Generated_Source\PSoC5/cyfitter_cfg.c **** 		};
 439:Generated_Source\PSoC5/cyfitter_cfg.c **** 
 440:Generated_Source\PSoC5/cyfitter_cfg.c **** 		uint8 CYDATA i;
 441:Generated_Source\PSoC5/cyfitter_cfg.c **** 
 442:Generated_Source\PSoC5/cyfitter_cfg.c **** 		/* Zero out critical memory blocks before beginning configuration */
 443:Generated_Source\PSoC5/cyfitter_cfg.c **** 		for (i = 0u; i < (sizeof(cfg_memset_list)/sizeof(cfg_memset_list[0])); i++)
 536              		.loc 1 443 0
ARM GAS  C:\Users\lilu1\AppData\Local\Temp\cc9UQxiR.s 			page 19


 537 000e 0024     		movs	r4, #0
 538 0010 0CE0     		b	.L31
 539              	.LVL37:
 540              	.L32:
 541              	.LBB4:
 444:Generated_Source\PSoC5/cyfitter_cfg.c **** 		{
 445:Generated_Source\PSoC5/cyfitter_cfg.c **** 			const cfg_memset_t CYCODE * CYDATA ms = &cfg_memset_list[i];
 446:Generated_Source\PSoC5/cyfitter_cfg.c **** 			CYMEMZERO(ms->address, (size_t)(uint32)(ms->size));
 542              		.loc 1 446 0 discriminator 3
 543 0012 3E49     		ldr	r1, .L36+4
 544 0014 6300     		lsls	r3, r4, #1
 545 0016 1A19     		adds	r2, r3, r4
 546 0018 5200     		lsls	r2, r2, #1
 547 001a 0A44     		add	r2, r2, r1
 548 001c 2344     		add	r3, r3, r4
 549 001e 5B00     		lsls	r3, r3, #1
 550 0020 C858     		ldr	r0, [r1, r3]	@ unaligned
 551 0022 9188     		ldrh	r1, [r2, #4]
 552 0024 FFF7FEFF 		bl	CYMEMZERO
 553              	.LVL38:
 554              	.LBE4:
 443:Generated_Source\PSoC5/cyfitter_cfg.c **** 		{
 555              		.loc 1 443 0 discriminator 3
 556 0028 0134     		adds	r4, r4, #1
 557              	.LVL39:
 558 002a E4B2     		uxtb	r4, r4
 559              	.LVL40:
 560              	.L31:
 443:Generated_Source\PSoC5/cyfitter_cfg.c **** 		{
 561              		.loc 1 443 0 is_stmt 0 discriminator 1
 562 002c 062C     		cmp	r4, #6
 563 002e F0D9     		bls	.L32
 564 0030 0024     		movs	r4, #0
 565              	.LVL41:
 566 0032 0FE0     		b	.L33
 567              	.LVL42:
 568              	.L34:
 569              	.LBB5:
 447:Generated_Source\PSoC5/cyfitter_cfg.c **** 		}
 448:Generated_Source\PSoC5/cyfitter_cfg.c **** 
 449:Generated_Source\PSoC5/cyfitter_cfg.c **** 		/* Copy device configuration data into registers */
 450:Generated_Source\PSoC5/cyfitter_cfg.c **** 		for (i = 0u; i < (sizeof(cfg_memcpy_list)/sizeof(cfg_memcpy_list[0])); i++)
 451:Generated_Source\PSoC5/cyfitter_cfg.c **** 		{
 452:Generated_Source\PSoC5/cyfitter_cfg.c **** 			const cfg_memcpy_t CYCODE * CYDATA mc = &cfg_memcpy_list[i];
 453:Generated_Source\PSoC5/cyfitter_cfg.c **** 			void * CYDATA destPtr = mc->dest;
 570              		.loc 1 453 0 is_stmt 1 discriminator 3
 571 0034 3549     		ldr	r1, .L36+4
 572 0036 A300     		lsls	r3, r4, #2
 573 0038 1A19     		adds	r2, r3, r4
 574 003a 5200     		lsls	r2, r2, #1
 575 003c 0A44     		add	r2, r2, r1
 576 003e 52F82C0F 		ldr	r0, [r2, #44]!	@ unaligned
 577              	.LVL43:
 454:Generated_Source\PSoC5/cyfitter_cfg.c **** 			const void * CYDATA srcPtr = mc->src;
 455:Generated_Source\PSoC5/cyfitter_cfg.c **** 			uint16 CYDATA numBytes = mc->size;
 578              		.loc 1 455 0 discriminator 3
 579 0042 2344     		add	r3, r3, r4
ARM GAS  C:\Users\lilu1\AppData\Local\Temp\cc9UQxiR.s 			page 20


 580 0044 5B00     		lsls	r3, r3, #1
 581 0046 0B44     		add	r3, r3, r1
 582              	.LVL44:
 456:Generated_Source\PSoC5/cyfitter_cfg.c **** 			CYCONFIGCPY(destPtr, srcPtr, numBytes);
 583              		.loc 1 456 0 discriminator 3
 584 0048 5168     		ldr	r1, [r2, #4]	@ unaligned
 585              	.LVL45:
 586 004a 9A8E     		ldrh	r2, [r3, #52]
 587 004c FFF7FEFF 		bl	CYCONFIGCPY
 588              	.LVL46:
 589              	.LBE5:
 450:Generated_Source\PSoC5/cyfitter_cfg.c **** 		{
 590              		.loc 1 450 0 discriminator 3
 591 0050 0134     		adds	r4, r4, #1
 592              	.LVL47:
 593 0052 E4B2     		uxtb	r4, r4
 594              	.LVL48:
 595              	.L33:
 450:Generated_Source\PSoC5/cyfitter_cfg.c **** 		{
 596              		.loc 1 450 0 is_stmt 0 discriminator 1
 597 0054 022C     		cmp	r4, #2
 598 0056 EDD9     		bls	.L34
 457:Generated_Source\PSoC5/cyfitter_cfg.c **** 		}
 458:Generated_Source\PSoC5/cyfitter_cfg.c **** 
 459:Generated_Source\PSoC5/cyfitter_cfg.c **** 		cfg_write_bytes32(cy_cfg_addr_table, cy_cfg_data_table);
 599              		.loc 1 459 0 is_stmt 1
 600 0058 4FF09040 		mov	r0, #1207959552
 601 005c 2C49     		ldr	r1, .L36+8
 602 005e FFF7FEFF 		bl	cfg_write_bytes32
 603              	.LVL49:
 460:Generated_Source\PSoC5/cyfitter_cfg.c **** 
 461:Generated_Source\PSoC5/cyfitter_cfg.c **** 		/* Enable digital routing */
 462:Generated_Source\PSoC5/cyfitter_cfg.c **** 		CY_SET_XTND_REG8((void CYFAR *)CYREG_BCTL0_BANK_CTL, CY_GET_XTND_REG8((void CYFAR *)CYREG_BCTL0_B
 604              		.loc 1 462 0
 605 0062 2C4A     		ldr	r2, .L36+12
 606 0064 1378     		ldrb	r3, [r2]	@ zero_extendqisi2
 607 0066 43F00203 		orr	r3, r3, #2
 608 006a 1370     		strb	r3, [r2]
 463:Generated_Source\PSoC5/cyfitter_cfg.c **** 		CY_SET_XTND_REG8((void CYFAR *)CYREG_BCTL1_BANK_CTL, CY_GET_XTND_REG8((void CYFAR *)CYREG_BCTL1_B
 609              		.loc 1 463 0
 610 006c 1032     		adds	r2, r2, #16
 611 006e 1378     		ldrb	r3, [r2]	@ zero_extendqisi2
 612 0070 43F00203 		orr	r3, r3, #2
 613 0074 1370     		strb	r3, [r2]
 464:Generated_Source\PSoC5/cyfitter_cfg.c **** 
 465:Generated_Source\PSoC5/cyfitter_cfg.c **** 		/* Enable UDB array */
 466:Generated_Source\PSoC5/cyfitter_cfg.c **** 		CY_SET_XTND_REG8((void CYFAR *)CYREG_PM_ACT_CFG0, CY_GET_XTND_REG8((void CYFAR *)CYREG_PM_ACT_CFG
 614              		.loc 1 466 0
 615 0076 284C     		ldr	r4, .L36+16
 616              	.LVL50:
 617 0078 2378     		ldrb	r3, [r4]	@ zero_extendqisi2
 618 007a 43F04003 		orr	r3, r3, #64
 619 007e 2370     		strb	r3, [r4]
 467:Generated_Source\PSoC5/cyfitter_cfg.c **** 		CY_SET_XTND_REG8((void CYFAR *)CYREG_PM_AVAIL_CR2, CY_GET_XTND_REG8((void CYFAR *)CYREG_PM_AVAIL_
 620              		.loc 1 467 0
 621 0080 A2F58632 		sub	r2, r2, #68608
 622 0084 513A     		subs	r2, r2, #81
ARM GAS  C:\Users\lilu1\AppData\Local\Temp\cc9UQxiR.s 			page 21


 623 0086 1378     		ldrb	r3, [r2]	@ zero_extendqisi2
 624 0088 43F01003 		orr	r3, r3, #16
 625 008c 1370     		strb	r3, [r2]
 626              	.LBE3:
 468:Generated_Source\PSoC5/cyfitter_cfg.c **** 	}
 469:Generated_Source\PSoC5/cyfitter_cfg.c **** 
 470:Generated_Source\PSoC5/cyfitter_cfg.c **** 
 471:Generated_Source\PSoC5/cyfitter_cfg.c **** 	/* Perform second pass device configuration. These items must be configured in specific order afte
 472:Generated_Source\PSoC5/cyfitter_cfg.c **** 	CYCONFIGCPY((void CYFAR *)(CYREG_PRT0_DM0), (const void CYFAR *)(BS_IOPINS0_0_VAL), 8u);
 627              		.loc 1 472 0
 628 008e 2348     		ldr	r0, .L36+20
 629 0090 2349     		ldr	r1, .L36+24
 630 0092 0822     		movs	r2, #8
 631 0094 FFF7FEFF 		bl	CYCONFIGCPY
 632              	.LVL51:
 473:Generated_Source\PSoC5/cyfitter_cfg.c **** 	CYCONFIGCPY((void CYFAR *)(CYREG_PRT12_DR), (const void CYFAR *)(BS_IOPINS0_7_VAL), 10u);
 633              		.loc 1 473 0
 634 0098 2248     		ldr	r0, .L36+28
 635 009a 2349     		ldr	r1, .L36+32
 636 009c 0A22     		movs	r2, #10
 637 009e FFF7FEFF 		bl	CYCONFIGCPY
 638              	.LVL52:
 474:Generated_Source\PSoC5/cyfitter_cfg.c **** 	CYCONFIGCPY((void CYFAR *)(CYREG_PRT15_DR), (const void CYFAR *)(BS_IOPINS0_8_VAL), 10u);
 639              		.loc 1 474 0
 640 00a2 2248     		ldr	r0, .L36+36
 641 00a4 2249     		ldr	r1, .L36+40
 642 00a6 0A22     		movs	r2, #10
 643 00a8 FFF7FEFF 		bl	CYCONFIGCPY
 644              	.LVL53:
 475:Generated_Source\PSoC5/cyfitter_cfg.c **** 	CYCONFIGCPY((void CYFAR *)(CYREG_PRT1_DR), (const void CYFAR *)(BS_IOPINS0_1_VAL), 10u);
 645              		.loc 1 475 0
 646 00ac 2148     		ldr	r0, .L36+44
 647 00ae 2249     		ldr	r1, .L36+48
 648 00b0 0A22     		movs	r2, #10
 649 00b2 FFF7FEFF 		bl	CYCONFIGCPY
 650              	.LVL54:
 476:Generated_Source\PSoC5/cyfitter_cfg.c **** 	CYCONFIGCPY((void CYFAR *)(CYREG_PRT2_DM0), (const void CYFAR *)(BS_IOPINS0_2_VAL), 8u);
 651              		.loc 1 476 0
 652 00b6 2148     		ldr	r0, .L36+52
 653 00b8 2149     		ldr	r1, .L36+56
 654 00ba 0822     		movs	r2, #8
 655 00bc FFF7FEFF 		bl	CYCONFIGCPY
 656              	.LVL55:
 477:Generated_Source\PSoC5/cyfitter_cfg.c **** 	CYCONFIGCPY((void CYFAR *)(CYREG_PRT4_DM0), (const void CYFAR *)(BS_IOPINS0_4_VAL), 8u);
 657              		.loc 1 477 0
 658 00c0 2048     		ldr	r0, .L36+60
 659 00c2 2149     		ldr	r1, .L36+64
 660 00c4 0822     		movs	r2, #8
 661 00c6 FFF7FEFF 		bl	CYCONFIGCPY
 662              	.LVL56:
 478:Generated_Source\PSoC5/cyfitter_cfg.c **** 	CYCONFIGCPY((void CYFAR *)(CYREG_PRT5_DR), (const void CYFAR *)(BS_IOPINS0_5_VAL), 10u);
 663              		.loc 1 478 0
 664 00ca 2048     		ldr	r0, .L36+68
 665 00cc 2049     		ldr	r1, .L36+72
 666 00ce 0A22     		movs	r2, #10
 667 00d0 FFF7FEFF 		bl	CYCONFIGCPY
 668              	.LVL57:
ARM GAS  C:\Users\lilu1\AppData\Local\Temp\cc9UQxiR.s 			page 22


 479:Generated_Source\PSoC5/cyfitter_cfg.c **** 	CYCONFIGCPY((void CYFAR *)(CYREG_PRT6_DM0), (const void CYFAR *)(BS_IOPINS0_6_VAL), 8u);
 669              		.loc 1 479 0
 670 00d4 1F48     		ldr	r0, .L36+76
 671 00d6 2049     		ldr	r1, .L36+80
 672 00d8 0822     		movs	r2, #8
 673 00da FFF7FEFF 		bl	CYCONFIGCPY
 674              	.LVL58:
 480:Generated_Source\PSoC5/cyfitter_cfg.c **** 	/* Switch Boost to the precision bandgap reference from its internal reference */
 481:Generated_Source\PSoC5/cyfitter_cfg.c **** 	CY_SET_REG8((void CYXDATA *)CYREG_BOOST_CR2, (CY_GET_REG8((void CYXDATA *)CYREG_BOOST_CR2) | 0x08u
 675              		.loc 1 481 0
 676 00de 1F4A     		ldr	r2, .L36+84
 677 00e0 1378     		ldrb	r3, [r2]	@ zero_extendqisi2
 678 00e2 43F00803 		orr	r3, r3, #8
 679 00e6 1370     		strb	r3, [r2]
 482:Generated_Source\PSoC5/cyfitter_cfg.c **** 
 483:Generated_Source\PSoC5/cyfitter_cfg.c **** 	/* Set Flash Cycles based on max possible frequency in case a glitch occurs during ClockSetup(). *
 484:Generated_Source\PSoC5/cyfitter_cfg.c **** 	CY_SET_XTND_REG8((void CYFAR *)(CYREG_CACHE_CC_CTL), (((CYDEV_INSTRUCT_CACHE_ENABLED) != 0) ? 0x61
 680              		.loc 1 484 0
 681 00e8 1D4D     		ldr	r5, .L36+88
 682 00ea 6123     		movs	r3, #97
 683 00ec 2B70     		strb	r3, [r5]
 485:Generated_Source\PSoC5/cyfitter_cfg.c **** 	/* Setup clocks based on selections from Clock DWR */
 486:Generated_Source\PSoC5/cyfitter_cfg.c **** 	ClockSetup();
 684              		.loc 1 486 0
 685 00ee FFF7FEFF 		bl	ClockSetup
 686              	.LVL59:
 487:Generated_Source\PSoC5/cyfitter_cfg.c **** 	/* Set Flash Cycles based on newly configured 24.00MHz Bus Clock. */
 488:Generated_Source\PSoC5/cyfitter_cfg.c **** 	CY_SET_XTND_REG8((void CYFAR *)(CYREG_CACHE_CC_CTL), (((CYDEV_INSTRUCT_CACHE_ENABLED) != 0) ? 0x81
 687              		.loc 1 488 0
 688 00f2 8123     		movs	r3, #129
 689 00f4 2B70     		strb	r3, [r5]
 489:Generated_Source\PSoC5/cyfitter_cfg.c **** 
 490:Generated_Source\PSoC5/cyfitter_cfg.c **** 	/* Perform basic analog initialization to defaults */
 491:Generated_Source\PSoC5/cyfitter_cfg.c **** 	AnalogSetDefault();
 690              		.loc 1 491 0
 691 00f6 FFF7FEFF 		bl	AnalogSetDefault
 692              	.LVL60:
 492:Generated_Source\PSoC5/cyfitter_cfg.c **** 
 493:Generated_Source\PSoC5/cyfitter_cfg.c **** 	/* Configure alternate active mode */
 494:Generated_Source\PSoC5/cyfitter_cfg.c **** 	CYCONFIGCPY((void CYFAR *)CYDEV_PM_STBY_BASE, (const void CYFAR *)CYDEV_PM_ACT_BASE, 14u);
 693              		.loc 1 494 0
 694 00fa 1A48     		ldr	r0, .L36+92
 695 00fc 2146     		mov	r1, r4
 696 00fe 0E22     		movs	r2, #14
 697 0100 FFF7FEFF 		bl	CYCONFIGCPY
 698              	.LVL61:
 699 0104 38BD     		pop	{r3, r4, r5, pc}
 700              	.L37:
 701 0106 00BF     		.align	2
 702              	.L36:
 703 0108 E8460040 		.word	1073759976
 704 010c 00000000 		.word	.LANCHOR0
 705 0110 AC000048 		.word	1207959724
 706 0114 03500140 		.word	1073827843
 707 0118 A0430040 		.word	1073759136
 708 011c 02510040 		.word	1073762562
 709 0120 80140048 		.word	1207964800
ARM GAS  C:\Users\lilu1\AppData\Local\Temp\cc9UQxiR.s 			page 23


 710 0124 C0510040 		.word	1073762752
 711 0128 88140048 		.word	1207964808
 712 012c F0510040 		.word	1073762800
 713 0130 94140048 		.word	1207964820
 714 0134 10510040 		.word	1073762576
 715 0138 A0140048 		.word	1207964832
 716 013c 22510040 		.word	1073762594
 717 0140 AC140048 		.word	1207964844
 718 0144 42510040 		.word	1073762626
 719 0148 B4140048 		.word	1207964852
 720 014c 50510040 		.word	1073762640
 721 0150 BC140048 		.word	1207964860
 722 0154 62510040 		.word	1073762658
 723 0158 C8140048 		.word	1207964872
 724 015c 22430040 		.word	1073759010
 725 0160 00480040 		.word	1073760256
 726 0164 B0430040 		.word	1073759152
 727              		.cfi_endproc
 728              	.LFE8:
 729              		.size	cyfitter_cfg, .-cyfitter_cfg
 730              		.section	.rodata
 731              		.align	2
 732              		.set	.LANCHOR0,. + 0
 733              		.type	cfg_memset_list.4915, %object
 734              		.size	cfg_memset_list.4915, 42
 735              	cfg_memset_list.4915:
 736 0000 30510040 		.word	1073762608
 737 0004 1000     		.short	16
 738 0006 80000140 		.4byte	1073807488
 739 000a 800F     		.short	3968
 740 000c 00140140 		.word	1073812480
 741 0010 8006     		.short	1664
 742 0012 001B0140 		.4byte	1073814272
 743 0016 0001     		.short	256
 744 0018 00400140 		.word	1073823744
 745 001c 000A     		.short	2560
 746 001e 004C0140 		.4byte	1073826816
 747 0022 0002     		.short	512
 748 0024 00500140 		.word	1073827840
 749 0028 2000     		.short	32
 750 002a 0000     		.space	2
 751              		.type	cfg_memcpy_list.4916, %object
 752              		.size	cfg_memcpy_list.4916, 30
 753              	cfg_memcpy_list.4916:
 754 002c 60520040 		.word	1073762912
 755 0030 78130048 		.word	1207964536
 756 0034 0600     		.short	6
 757 0036 00000140 		.4byte	1073807360
 758 003a 80130048 		.4byte	1207964544
 759 003e 8000     		.short	128
 760 0040 801A0140 		.word	1073814144
 761 0044 00140048 		.word	1207964672
 762 0048 8000     		.short	128
 763 004a 0000     		.text
 764              	.Letext0:
 765              		.file 2 "c:\\program files (x86)\\cypress\\psoc creator\\4.0\\psoc creator\\import\\gnu\\arm\\4.9.
 766              		.file 3 "Generated_Source\\PSoC5\\cytypes.h"
ARM GAS  C:\Users\lilu1\AppData\Local\Temp\cc9UQxiR.s 			page 24


 767              		.file 4 "Generated_Source\\PSoC5\\CyLib.h"